
HUPV-Bootloader.elf:     file format elf32-littlearm

Sections:
Idx Name          Size      VMA       LMA       File off  Algn
  0 .isr_vector   000002cc  080e0000  080e0000  00010000  2**0
                  CONTENTS, ALLOC, LOAD, READONLY, DATA
  1 .text         00002dd0  080e02cc  080e02cc  000102cc  2**2
                  CONTENTS, ALLOC, LOAD, READONLY, CODE
  2 .rodata       0000006c  080e309c  080e309c  0001309c  2**2
                  CONTENTS, ALLOC, LOAD, READONLY, DATA
  3 .init_array   00000004  080e3108  080e3108  00013108  2**2
                  CONTENTS, ALLOC, LOAD, DATA
  4 .fini_array   00000004  080e310c  080e310c  0001310c  2**2
                  CONTENTS, ALLOC, LOAD, DATA
  5 .data         00000010  24000000  080e3110  00020000  2**2
                  CONTENTS, ALLOC, LOAD, DATA
  6 .bss          00000188  24000010  080e3120  00020010  2**2
                  ALLOC
  7 ._user_heap_stack 00000600  24000198  080e3120  00020198  2**0
                  ALLOC
  8 .ARM.attributes 0000002e  00000000  00000000  00020010  2**0
                  CONTENTS, READONLY
  9 .comment      00000050  00000000  00000000  0002003e  2**0
                  CONTENTS, READONLY
 10 .debug_frame  00000074  00000000  00000000  00020090  2**2
                  CONTENTS, READONLY, DEBUGGING, OCTETS

Disassembly of section .text:

080e02cc <__do_global_dtors_aux>:
 80e02cc:	b510      	push	{r4, lr}
 80e02ce:	4c05      	ldr	r4, [pc, #20]	; (80e02e4 <__do_global_dtors_aux+0x18>)
 80e02d0:	7823      	ldrb	r3, [r4, #0]
 80e02d2:	b933      	cbnz	r3, 80e02e2 <__do_global_dtors_aux+0x16>
 80e02d4:	4b04      	ldr	r3, [pc, #16]	; (80e02e8 <__do_global_dtors_aux+0x1c>)
 80e02d6:	b113      	cbz	r3, 80e02de <__do_global_dtors_aux+0x12>
 80e02d8:	4804      	ldr	r0, [pc, #16]	; (80e02ec <__do_global_dtors_aux+0x20>)
 80e02da:	f3af 8000 	nop.w
 80e02de:	2301      	movs	r3, #1
 80e02e0:	7023      	strb	r3, [r4, #0]
 80e02e2:	bd10      	pop	{r4, pc}
 80e02e4:	24000010 	.word	0x24000010
 80e02e8:	00000000 	.word	0x00000000
 80e02ec:	080e3084 	.word	0x080e3084

080e02f0 <frame_dummy>:
 80e02f0:	b508      	push	{r3, lr}
 80e02f2:	4b03      	ldr	r3, [pc, #12]	; (80e0300 <frame_dummy+0x10>)
 80e02f4:	b11b      	cbz	r3, 80e02fe <frame_dummy+0xe>
 80e02f6:	4903      	ldr	r1, [pc, #12]	; (80e0304 <frame_dummy+0x14>)
 80e02f8:	4803      	ldr	r0, [pc, #12]	; (80e0308 <frame_dummy+0x18>)
 80e02fa:	f3af 8000 	nop.w
 80e02fe:	bd08      	pop	{r3, pc}
 80e0300:	00000000 	.word	0x00000000
 80e0304:	24000014 	.word	0x24000014
 80e0308:	080e3084 	.word	0x080e3084

080e030c <__b_data_copy_to_packet>:
 80e030c:	1e4b      	subs	r3, r1, #1
 80e030e:	3002      	adds	r0, #2
 80e0310:	313f      	adds	r1, #63	; 0x3f
 80e0312:	f813 2f01 	ldrb.w	r2, [r3, #1]!
 80e0316:	428b      	cmp	r3, r1
 80e0318:	f800 2b01 	strb.w	r2, [r0], #1
 80e031c:	d1f9      	bne.n	80e0312 <__b_data_copy_to_packet+0x6>
 80e031e:	4770      	bx	lr

080e0320 <__b_data_copy_from_packet>:
 80e0320:	1c83      	adds	r3, r0, #2
 80e0322:	3901      	subs	r1, #1
 80e0324:	3042      	adds	r0, #66	; 0x42
 80e0326:	f813 2b01 	ldrb.w	r2, [r3], #1
 80e032a:	4283      	cmp	r3, r0
 80e032c:	f801 2f01 	strb.w	r2, [r1, #1]!
 80e0330:	d1f9      	bne.n	80e0326 <__b_data_copy_from_packet+0x6>
 80e0332:	4770      	bx	lr

080e0334 <__b_clean_fdcan_packet_data>:
 80e0334:	2240      	movs	r2, #64	; 0x40
 80e0336:	2100      	movs	r1, #0
 80e0338:	3002      	adds	r0, #2
 80e033a:	f002 be9b 	b.w	80e3074 <memset>

080e033e <__b_send_ack>:
 80e033e:	b510      	push	{r4, lr}
 80e0340:	4604      	mov	r4, r0
 80e0342:	f7ff fff7 	bl	80e0334 <__b_clean_fdcan_packet_data>
 80e0346:	2379      	movs	r3, #121	; 0x79
 80e0348:	4620      	mov	r0, r4
 80e034a:	70a3      	strb	r3, [r4, #2]
 80e034c:	e8bd 4010 	ldmia.w	sp!, {r4, lr}
 80e0350:	f000 b92a 	b.w	80e05a8 <fdcan_transmit>

080e0354 <__b_send_nack>:
 80e0354:	b510      	push	{r4, lr}
 80e0356:	4604      	mov	r4, r0
 80e0358:	f7ff ffec 	bl	80e0334 <__b_clean_fdcan_packet_data>
 80e035c:	231f      	movs	r3, #31
 80e035e:	4620      	mov	r0, r4
 80e0360:	70a3      	strb	r3, [r4, #2]
 80e0362:	e8bd 4010 	ldmia.w	sp!, {r4, lr}
 80e0366:	f000 b91f 	b.w	80e05a8 <fdcan_transmit>

080e036a <__b_get_version>:
 80e036a:	b510      	push	{r4, lr}
 80e036c:	4604      	mov	r4, r0
 80e036e:	f7ff ffe6 	bl	80e033e <__b_send_ack>
 80e0372:	2305      	movs	r3, #5
 80e0374:	4620      	mov	r0, r4
 80e0376:	70a3      	strb	r3, [r4, #2]
 80e0378:	f000 f916 	bl	80e05a8 <fdcan_transmit>
 80e037c:	b120      	cbz	r0, 80e0388 <__b_get_version+0x1e>
 80e037e:	4620      	mov	r0, r4
 80e0380:	e8bd 4010 	ldmia.w	sp!, {r4, lr}
 80e0384:	f7ff bfe6 	b.w	80e0354 <__b_send_nack>
 80e0388:	4620      	mov	r0, r4
 80e038a:	e8bd 4010 	ldmia.w	sp!, {r4, lr}
 80e038e:	f7ff bfd6 	b.w	80e033e <__b_send_ack>

080e0392 <__b_erase_memory>:
 80e0392:	b570      	push	{r4, r5, r6, lr}
 80e0394:	7886      	ldrb	r6, [r0, #2]
 80e0396:	4604      	mov	r4, r0
 80e0398:	78c5      	ldrb	r5, [r0, #3]
 80e039a:	42ae      	cmp	r6, r5
 80e039c:	d801      	bhi.n	80e03a2 <__b_erase_memory+0x10>
 80e039e:	2d05      	cmp	r5, #5
 80e03a0:	d904      	bls.n	80e03ac <__b_erase_memory+0x1a>
 80e03a2:	4620      	mov	r0, r4
 80e03a4:	e8bd 4070 	ldmia.w	sp!, {r4, r5, r6, lr}
 80e03a8:	f7ff bfd4 	b.w	80e0354 <__b_send_nack>
 80e03ac:	f7ff ffc7 	bl	80e033e <__b_send_ack>
 80e03b0:	4629      	mov	r1, r5
 80e03b2:	4630      	mov	r0, r6
 80e03b4:	f000 f956 	bl	80e0664 <flash_erase>
 80e03b8:	2800      	cmp	r0, #0
 80e03ba:	d1f2      	bne.n	80e03a2 <__b_erase_memory+0x10>
 80e03bc:	4620      	mov	r0, r4
 80e03be:	e8bd 4070 	ldmia.w	sp!, {r4, r5, r6, lr}
 80e03c2:	f7ff bfbc 	b.w	80e033e <__b_send_ack>

080e03c6 <__b_clean_fdcan_packet_all>:
 80e03c6:	b510      	push	{r4, lr}
 80e03c8:	2240      	movs	r2, #64	; 0x40
 80e03ca:	4604      	mov	r4, r0
 80e03cc:	2100      	movs	r1, #0
 80e03ce:	3002      	adds	r0, #2
 80e03d0:	f002 fe50 	bl	80e3074 <memset>
 80e03d4:	2300      	movs	r3, #0
 80e03d6:	8023      	strh	r3, [r4, #0]
 80e03d8:	bd10      	pop	{r4, pc}
	...

080e03dc <__b_wait_until_fdcan_message_received>:
 80e03dc:	b538      	push	{r3, r4, r5, lr}
 80e03de:	4c08      	ldr	r4, [pc, #32]	; (80e0400 <__b_wait_until_fdcan_message_received+0x24>)
 80e03e0:	2200      	movs	r2, #0
 80e03e2:	f644 6520 	movw	r5, #20000	; 0x4e20
 80e03e6:	6823      	ldr	r3, [r4, #0]
 80e03e8:	625a      	str	r2, [r3, #36]	; 0x24
 80e03ea:	f000 f8ff 	bl	80e05ec <fdcan_test>
 80e03ee:	b108      	cbz	r0, 80e03f4 <__b_wait_until_fdcan_message_received+0x18>
 80e03f0:	2000      	movs	r0, #0
 80e03f2:	bd38      	pop	{r3, r4, r5, pc}
 80e03f4:	6823      	ldr	r3, [r4, #0]
 80e03f6:	6a5b      	ldr	r3, [r3, #36]	; 0x24
 80e03f8:	42ab      	cmp	r3, r5
 80e03fa:	d9f6      	bls.n	80e03ea <__b_wait_until_fdcan_message_received+0xe>
 80e03fc:	2001      	movs	r0, #1
 80e03fe:	e7f8      	b.n	80e03f2 <__b_wait_until_fdcan_message_received+0x16>
 80e0400:	2400012c 	.word	0x2400012c

080e0404 <__b_wait_for_ack>:
 80e0404:	b510      	push	{r4, lr}
 80e0406:	b092      	sub	sp, #72	; 0x48
 80e0408:	4604      	mov	r4, r0
 80e040a:	f7ff ffe7 	bl	80e03dc <__b_wait_until_fdcan_message_received>
 80e040e:	b968      	cbnz	r0, 80e042c <__b_wait_for_ack+0x28>
 80e0410:	a801      	add	r0, sp, #4
 80e0412:	f000 f8f7 	bl	80e0604 <fdcan_read>
 80e0416:	f8bd 3004 	ldrh.w	r3, [sp, #4]
 80e041a:	42a3      	cmp	r3, r4
 80e041c:	d106      	bne.n	80e042c <__b_wait_for_ack+0x28>
 80e041e:	f89d 0006 	ldrb.w	r0, [sp, #6]
 80e0422:	3879      	subs	r0, #121	; 0x79
 80e0424:	bf18      	it	ne
 80e0426:	2001      	movne	r0, #1
 80e0428:	b012      	add	sp, #72	; 0x48
 80e042a:	bd10      	pop	{r4, pc}
 80e042c:	2001      	movs	r0, #1
 80e042e:	e7fb      	b.n	80e0428 <__b_wait_for_ack+0x24>

080e0430 <__b_read_memory>:
 80e0430:	b570      	push	{r4, r5, r6, lr}
 80e0432:	7884      	ldrb	r4, [r0, #2]
 80e0434:	f5ad 3d00 	sub.w	sp, sp, #131072	; 0x20000
 80e0438:	4605      	mov	r5, r0
 80e043a:	4620      	mov	r0, r4
 80e043c:	f000 f971 	bl	80e0722 <flash_get_sector_starting_address>
 80e0440:	1c42      	adds	r2, r0, #1
 80e0442:	d001      	beq.n	80e0448 <__b_read_memory+0x18>
 80e0444:	2c06      	cmp	r4, #6
 80e0446:	d905      	bls.n	80e0454 <__b_read_memory+0x24>
 80e0448:	4628      	mov	r0, r5
 80e044a:	f7ff ff83 	bl	80e0354 <__b_send_nack>
 80e044e:	f50d 3d00 	add.w	sp, sp, #131072	; 0x20000
 80e0452:	bd70      	pop	{r4, r5, r6, pc}
 80e0454:	f44f 4200 	mov.w	r2, #32768	; 0x8000
 80e0458:	4669      	mov	r1, sp
 80e045a:	f000 f8e9 	bl	80e0630 <flash_read>
 80e045e:	2800      	cmp	r0, #0
 80e0460:	d1f2      	bne.n	80e0448 <__b_read_memory+0x18>
 80e0462:	4628      	mov	r0, r5
 80e0464:	f7ff ff6b 	bl	80e033e <__b_send_ack>
 80e0468:	7828      	ldrb	r0, [r5, #0]
 80e046a:	f7ff ffcb 	bl	80e0404 <__b_wait_for_ack>
 80e046e:	4604      	mov	r4, r0
 80e0470:	2800      	cmp	r0, #0
 80e0472:	d1e9      	bne.n	80e0448 <__b_read_memory+0x18>
 80e0474:	4606      	mov	r6, r0
 80e0476:	4628      	mov	r0, r5
 80e0478:	eb0d 0186 	add.w	r1, sp, r6, lsl #2
 80e047c:	f7ff ff46 	bl	80e030c <__b_data_copy_to_packet>
 80e0480:	4628      	mov	r0, r5
 80e0482:	f000 f891 	bl	80e05a8 <fdcan_transmit>
 80e0486:	2800      	cmp	r0, #0
 80e0488:	d1de      	bne.n	80e0448 <__b_read_memory+0x18>
 80e048a:	2c07      	cmp	r4, #7
 80e048c:	d908      	bls.n	80e04a0 <__b_read_memory+0x70>
 80e048e:	4628      	mov	r0, r5
 80e0490:	f7ff ff55 	bl	80e033e <__b_send_ack>
 80e0494:	7828      	ldrb	r0, [r5, #0]
 80e0496:	f7ff ffb5 	bl	80e0404 <__b_wait_for_ack>
 80e049a:	4604      	mov	r4, r0
 80e049c:	2800      	cmp	r0, #0
 80e049e:	d1d3      	bne.n	80e0448 <__b_read_memory+0x18>
 80e04a0:	f106 0310 	add.w	r3, r6, #16
 80e04a4:	3401      	adds	r4, #1
 80e04a6:	b29e      	uxth	r6, r3
 80e04a8:	041b      	lsls	r3, r3, #16
 80e04aa:	b2a4      	uxth	r4, r4
 80e04ac:	d5e3      	bpl.n	80e0476 <__b_read_memory+0x46>
 80e04ae:	4628      	mov	r0, r5
 80e04b0:	f7ff ff45 	bl	80e033e <__b_send_ack>
 80e04b4:	e7cb      	b.n	80e044e <__b_read_memory+0x1e>

080e04b6 <__b_write_memory>:
 80e04b6:	b5f0      	push	{r4, r5, r6, r7, lr}
 80e04b8:	7885      	ldrb	r5, [r0, #2]
 80e04ba:	f5ad 3d00 	sub.w	sp, sp, #131072	; 0x20000
 80e04be:	4604      	mov	r4, r0
 80e04c0:	b081      	sub	sp, #4
 80e04c2:	4628      	mov	r0, r5
 80e04c4:	f000 f92d 	bl	80e0722 <flash_get_sector_starting_address>
 80e04c8:	1c42      	adds	r2, r0, #1
 80e04ca:	4607      	mov	r7, r0
 80e04cc:	d001      	beq.n	80e04d2 <__b_write_memory+0x1c>
 80e04ce:	2d05      	cmp	r5, #5
 80e04d0:	d906      	bls.n	80e04e0 <__b_write_memory+0x2a>
 80e04d2:	4620      	mov	r0, r4
 80e04d4:	f7ff ff3e 	bl	80e0354 <__b_send_nack>
 80e04d8:	f50d 3d00 	add.w	sp, sp, #131072	; 0x20000
 80e04dc:	b001      	add	sp, #4
 80e04de:	bdf0      	pop	{r4, r5, r6, r7, pc}
 80e04e0:	4620      	mov	r0, r4
 80e04e2:	f7ff ff2c 	bl	80e033e <__b_send_ack>
 80e04e6:	7820      	ldrb	r0, [r4, #0]
 80e04e8:	f7ff ff8c 	bl	80e0404 <__b_wait_for_ack>
 80e04ec:	4605      	mov	r5, r0
 80e04ee:	2800      	cmp	r0, #0
 80e04f0:	d1ef      	bne.n	80e04d2 <__b_write_memory+0x1c>
 80e04f2:	2601      	movs	r6, #1
 80e04f4:	f7ff ff72 	bl	80e03dc <__b_wait_until_fdcan_message_received>
 80e04f8:	4620      	mov	r0, r4
 80e04fa:	f000 f883 	bl	80e0604 <fdcan_read>
 80e04fe:	2800      	cmp	r0, #0
 80e0500:	d1e7      	bne.n	80e04d2 <__b_write_memory+0x1c>
 80e0502:	8823      	ldrh	r3, [r4, #0]
 80e0504:	2b30      	cmp	r3, #48	; 0x30
 80e0506:	d002      	beq.n	80e050e <__b_write_memory+0x58>
 80e0508:	2330      	movs	r3, #48	; 0x30
 80e050a:	8023      	strh	r3, [r4, #0]
 80e050c:	e7e1      	b.n	80e04d2 <__b_write_memory+0x1c>
 80e050e:	eb0d 0185 	add.w	r1, sp, r5, lsl #2
 80e0512:	4620      	mov	r0, r4
 80e0514:	f7ff ff04 	bl	80e0320 <__b_data_copy_from_packet>
 80e0518:	2e07      	cmp	r6, #7
 80e051a:	d917      	bls.n	80e054c <__b_write_memory+0x96>
 80e051c:	4620      	mov	r0, r4
 80e051e:	f7ff ff0e 	bl	80e033e <__b_send_ack>
 80e0522:	7820      	ldrb	r0, [r4, #0]
 80e0524:	f7ff ff6e 	bl	80e0404 <__b_wait_for_ack>
 80e0528:	2800      	cmp	r0, #0
 80e052a:	d1d2      	bne.n	80e04d2 <__b_write_memory+0x1c>
 80e052c:	2601      	movs	r6, #1
 80e052e:	f105 0310 	add.w	r3, r5, #16
 80e0532:	b29d      	uxth	r5, r3
 80e0534:	041b      	lsls	r3, r3, #16
 80e0536:	d5dd      	bpl.n	80e04f4 <__b_write_memory+0x3e>
 80e0538:	f44f 4200 	mov.w	r2, #32768	; 0x8000
 80e053c:	4669      	mov	r1, sp
 80e053e:	4638      	mov	r0, r7
 80e0540:	f000 f8f8 	bl	80e0734 <flash_write>
 80e0544:	4620      	mov	r0, r4
 80e0546:	f7ff fefa 	bl	80e033e <__b_send_ack>
 80e054a:	e7c5      	b.n	80e04d8 <__b_write_memory+0x22>
 80e054c:	3601      	adds	r6, #1
 80e054e:	b2b6      	uxth	r6, r6
 80e0550:	e7ed      	b.n	80e052e <__b_write_memory+0x78>

080e0552 <bootloader_start>:
 80e0552:	b500      	push	{lr}
 80e0554:	b093      	sub	sp, #76	; 0x4c
 80e0556:	a801      	add	r0, sp, #4
 80e0558:	f7ff ff35 	bl	80e03c6 <__b_clean_fdcan_packet_all>
 80e055c:	f7ff ff3e 	bl	80e03dc <__b_wait_until_fdcan_message_received>
 80e0560:	2800      	cmp	r0, #0
 80e0562:	d1fb      	bne.n	80e055c <bootloader_start+0xa>
 80e0564:	a801      	add	r0, sp, #4
 80e0566:	f000 f84d 	bl	80e0604 <fdcan_read>
 80e056a:	f8bd 3004 	ldrh.w	r3, [sp, #4]
 80e056e:	2b40      	cmp	r3, #64	; 0x40
 80e0570:	d00e      	beq.n	80e0590 <bootloader_start+0x3e>
 80e0572:	d807      	bhi.n	80e0584 <bootloader_start+0x32>
 80e0574:	2b20      	cmp	r3, #32
 80e0576:	d013      	beq.n	80e05a0 <bootloader_start+0x4e>
 80e0578:	2b30      	cmp	r3, #48	; 0x30
 80e057a:	d00d      	beq.n	80e0598 <bootloader_start+0x46>
 80e057c:	a801      	add	r0, sp, #4
 80e057e:	f7ff fee9 	bl	80e0354 <__b_send_nack>
 80e0582:	e7e8      	b.n	80e0556 <bootloader_start+0x4>
 80e0584:	2b50      	cmp	r3, #80	; 0x50
 80e0586:	d1f9      	bne.n	80e057c <bootloader_start+0x2a>
 80e0588:	a801      	add	r0, sp, #4
 80e058a:	f7ff feee 	bl	80e036a <__b_get_version>
 80e058e:	e7e2      	b.n	80e0556 <bootloader_start+0x4>
 80e0590:	a801      	add	r0, sp, #4
 80e0592:	f7ff ff4d 	bl	80e0430 <__b_read_memory>
 80e0596:	e7de      	b.n	80e0556 <bootloader_start+0x4>
 80e0598:	a801      	add	r0, sp, #4
 80e059a:	f7ff ff8c 	bl	80e04b6 <__b_write_memory>
 80e059e:	e7da      	b.n	80e0556 <bootloader_start+0x4>
 80e05a0:	a801      	add	r0, sp, #4
 80e05a2:	f7ff fef6 	bl	80e0392 <__b_erase_memory>
 80e05a6:	e7d6      	b.n	80e0556 <bootloader_start+0x4>

080e05a8 <fdcan_transmit>:
 80e05a8:	b508      	push	{r3, lr}
 80e05aa:	490e      	ldr	r1, [pc, #56]	; (80e05e4 <fdcan_transmit+0x3c>)
 80e05ac:	f44f 2270 	mov.w	r2, #983040	; 0xf0000
 80e05b0:	f830 3b02 	ldrh.w	r3, [r0], #2
 80e05b4:	f44f 1c80 	mov.w	ip, #1048576	; 0x100000
 80e05b8:	600b      	str	r3, [r1, #0]
 80e05ba:	2300      	movs	r3, #0
 80e05bc:	e9c1 2303 	strd	r2, r3, [r1, #12]
 80e05c0:	f44f 1200 	mov.w	r2, #2097152	; 0x200000
 80e05c4:	e9c1 c205 	strd	ip, r2, [r1, #20]
 80e05c8:	4602      	mov	r2, r0
 80e05ca:	4807      	ldr	r0, [pc, #28]	; (80e05e8 <fdcan_transmit+0x40>)
 80e05cc:	e9c1 3301 	strd	r3, r3, [r1, #4]
 80e05d0:	e9c1 3307 	strd	r3, r3, [r1, #28]
 80e05d4:	f000 fe3f 	bl	80e1256 <HAL_FDCAN_AddMessageToTxFifoQ>
 80e05d8:	3800      	subs	r0, #0
 80e05da:	bf18      	it	ne
 80e05dc:	2001      	movne	r0, #1
 80e05de:	4240      	negs	r0, r0
 80e05e0:	b2c0      	uxtb	r0, r0
 80e05e2:	bd08      	pop	{r3, pc}
 80e05e4:	24000054 	.word	0x24000054
 80e05e8:	2400008c 	.word	0x2400008c

080e05ec <fdcan_test>:
 80e05ec:	4b04      	ldr	r3, [pc, #16]	; (80e0600 <fdcan_test+0x14>)
 80e05ee:	681b      	ldr	r3, [r3, #0]
 80e05f0:	f8d3 00a4 	ldr.w	r0, [r3, #164]	; 0xa4
 80e05f4:	f010 007f 	ands.w	r0, r0, #127	; 0x7f
 80e05f8:	bf18      	it	ne
 80e05fa:	2001      	movne	r0, #1
 80e05fc:	4770      	bx	lr
 80e05fe:	bf00      	nop
 80e0600:	2400008c 	.word	0x2400008c

080e0604 <fdcan_read>:
 80e0604:	b538      	push	{r3, r4, r5, lr}
 80e0606:	4604      	mov	r4, r0
 80e0608:	f7ff fff0 	bl	80e05ec <fdcan_test>
 80e060c:	b150      	cbz	r0, 80e0624 <fdcan_read+0x20>
 80e060e:	4d06      	ldr	r5, [pc, #24]	; (80e0628 <fdcan_read+0x24>)
 80e0610:	1ca3      	adds	r3, r4, #2
 80e0612:	2140      	movs	r1, #64	; 0x40
 80e0614:	4805      	ldr	r0, [pc, #20]	; (80e062c <fdcan_read+0x28>)
 80e0616:	462a      	mov	r2, r5
 80e0618:	f000 fe50 	bl	80e12bc <HAL_FDCAN_GetRxMessage>
 80e061c:	682b      	ldr	r3, [r5, #0]
 80e061e:	2000      	movs	r0, #0
 80e0620:	8023      	strh	r3, [r4, #0]
 80e0622:	bd38      	pop	{r3, r4, r5, pc}
 80e0624:	2001      	movs	r0, #1
 80e0626:	e7fc      	b.n	80e0622 <fdcan_read+0x1e>
 80e0628:	2400002c 	.word	0x2400002c
 80e062c:	2400008c 	.word	0x2400008c

080e0630 <flash_read>:
 80e0630:	f100 4378 	add.w	r3, r0, #4160749568	; 0xf8000000
 80e0634:	f5b3 2f40 	cmp.w	r3, #786432	; 0xc0000
 80e0638:	b570      	push	{r4, r5, r6, lr}
 80e063a:	4604      	mov	r4, r0
 80e063c:	460e      	mov	r6, r1
 80e063e:	4615      	mov	r5, r2
 80e0640:	d20e      	bcs.n	80e0660 <flash_read+0x30>
 80e0642:	f000 ff2f 	bl	80e14a4 <HAL_FLASH_Unlock>
 80e0646:	2300      	movs	r3, #0
 80e0648:	42ab      	cmp	r3, r5
 80e064a:	d103      	bne.n	80e0654 <flash_read+0x24>
 80e064c:	f000 ff3c 	bl	80e14c8 <HAL_FLASH_Lock>
 80e0650:	2000      	movs	r0, #0
 80e0652:	bd70      	pop	{r4, r5, r6, pc}
 80e0654:	f854 2023 	ldr.w	r2, [r4, r3, lsl #2]
 80e0658:	f846 2023 	str.w	r2, [r6, r3, lsl #2]
 80e065c:	3301      	adds	r3, #1
 80e065e:	e7f3      	b.n	80e0648 <flash_read+0x18>
 80e0660:	2001      	movs	r0, #1
 80e0662:	e7f6      	b.n	80e0652 <flash_read+0x22>

080e0664 <flash_erase>:
 80e0664:	2905      	cmp	r1, #5
 80e0666:	b513      	push	{r0, r1, r4, lr}
 80e0668:	d81b      	bhi.n	80e06a2 <flash_erase+0x3e>
 80e066a:	4c0f      	ldr	r4, [pc, #60]	; (80e06a8 <flash_erase+0x44>)
 80e066c:	2300      	movs	r3, #0
 80e066e:	6023      	str	r3, [r4, #0]
 80e0670:	2320      	movs	r3, #32
 80e0672:	60a0      	str	r0, [r4, #8]
 80e0674:	6123      	str	r3, [r4, #16]
 80e0676:	2301      	movs	r3, #1
 80e0678:	6063      	str	r3, [r4, #4]
 80e067a:	1a1b      	subs	r3, r3, r0
 80e067c:	440b      	add	r3, r1
 80e067e:	60e3      	str	r3, [r4, #12]
 80e0680:	f000 ff10 	bl	80e14a4 <HAL_FLASH_Unlock>
 80e0684:	4620      	mov	r0, r4
 80e0686:	a901      	add	r1, sp, #4
 80e0688:	f000 ffbe 	bl	80e1608 <HAL_FLASHEx_Erase>
 80e068c:	4604      	mov	r4, r0
 80e068e:	b128      	cbz	r0, 80e069c <flash_erase+0x38>
 80e0690:	24ff      	movs	r4, #255	; 0xff
 80e0692:	f000 ff19 	bl	80e14c8 <HAL_FLASH_Lock>
 80e0696:	4620      	mov	r0, r4
 80e0698:	b002      	add	sp, #8
 80e069a:	bd10      	pop	{r4, pc}
 80e069c:	f000 ff14 	bl	80e14c8 <HAL_FLASH_Lock>
 80e06a0:	e7f9      	b.n	80e0696 <flash_erase+0x32>
 80e06a2:	2401      	movs	r4, #1
 80e06a4:	e7f7      	b.n	80e0696 <flash_erase+0x32>
 80e06a6:	bf00      	nop
 80e06a8:	24000078 	.word	0x24000078

080e06ac <__flash_get_sector>:
 80e06ac:	f100 4378 	add.w	r3, r0, #4160749568	; 0xf8000000
 80e06b0:	f5b3 3f00 	cmp.w	r3, #131072	; 0x20000
 80e06b4:	d327      	bcc.n	80e0706 <__flash_get_sector+0x5a>
 80e06b6:	f100 4077 	add.w	r0, r0, #4143972352	; 0xf7000000
 80e06ba:	f500 037e 	add.w	r3, r0, #16646144	; 0xfe0000
 80e06be:	f5b3 3f00 	cmp.w	r3, #131072	; 0x20000
 80e06c2:	d322      	bcc.n	80e070a <__flash_get_sector+0x5e>
 80e06c4:	f500 037c 	add.w	r3, r0, #16515072	; 0xfc0000
 80e06c8:	f5b3 3f00 	cmp.w	r3, #131072	; 0x20000
 80e06cc:	d31f      	bcc.n	80e070e <__flash_get_sector+0x62>
 80e06ce:	f500 037a 	add.w	r3, r0, #16384000	; 0xfa0000
 80e06d2:	f5b3 3f00 	cmp.w	r3, #131072	; 0x20000
 80e06d6:	d31c      	bcc.n	80e0712 <__flash_get_sector+0x66>
 80e06d8:	f500 0378 	add.w	r3, r0, #16252928	; 0xf80000
 80e06dc:	f5b3 3f00 	cmp.w	r3, #131072	; 0x20000
 80e06e0:	d319      	bcc.n	80e0716 <__flash_get_sector+0x6a>
 80e06e2:	f500 0376 	add.w	r3, r0, #16121856	; 0xf60000
 80e06e6:	f5b3 3f00 	cmp.w	r3, #131072	; 0x20000
 80e06ea:	d316      	bcc.n	80e071a <__flash_get_sector+0x6e>
 80e06ec:	f500 0374 	add.w	r3, r0, #15990784	; 0xf40000
 80e06f0:	f5b3 3f00 	cmp.w	r3, #131072	; 0x20000
 80e06f4:	d313      	bcc.n	80e071e <__flash_get_sector+0x72>
 80e06f6:	f500 0072 	add.w	r0, r0, #15859712	; 0xf20000
 80e06fa:	f5b0 3f00 	cmp.w	r0, #131072	; 0x20000
 80e06fe:	bf2c      	ite	cs
 80e0700:	2000      	movcs	r0, #0
 80e0702:	2007      	movcc	r0, #7
 80e0704:	4770      	bx	lr
 80e0706:	2000      	movs	r0, #0
 80e0708:	4770      	bx	lr
 80e070a:	2001      	movs	r0, #1
 80e070c:	4770      	bx	lr
 80e070e:	2002      	movs	r0, #2
 80e0710:	4770      	bx	lr
 80e0712:	2003      	movs	r0, #3
 80e0714:	4770      	bx	lr
 80e0716:	2004      	movs	r0, #4
 80e0718:	4770      	bx	lr
 80e071a:	2005      	movs	r0, #5
 80e071c:	4770      	bx	lr
 80e071e:	2006      	movs	r0, #6
 80e0720:	4770      	bx	lr

080e0722 <flash_get_sector_starting_address>:
 80e0722:	2807      	cmp	r0, #7
 80e0724:	bf9a      	itte	ls
 80e0726:	0440      	lslls	r0, r0, #17
 80e0728:	f100 6000 	addls.w	r0, r0, #134217728	; 0x8000000
 80e072c:	f04f 30ff 	movhi.w	r0, #4294967295
 80e0730:	4770      	bx	lr
	...

080e0734 <flash_write>:
 80e0734:	f100 4378 	add.w	r3, r0, #4160749568	; 0xf8000000
 80e0738:	f5b3 2f40 	cmp.w	r3, #786432	; 0xc0000
 80e073c:	e92d 41f0 	stmdb	sp!, {r4, r5, r6, r7, r8, lr}
 80e0740:	4606      	mov	r6, r0
 80e0742:	460d      	mov	r5, r1
 80e0744:	d303      	bcc.n	80e074e <flash_write+0x1a>
 80e0746:	2501      	movs	r5, #1
 80e0748:	4628      	mov	r0, r5
 80e074a:	e8bd 81f0 	ldmia.w	sp!, {r4, r5, r6, r7, r8, pc}
 80e074e:	f102 4280 	add.w	r2, r2, #1073741824	; 0x40000000
 80e0752:	f7ff ffab 	bl	80e06ac <__flash_get_sector>
 80e0756:	4604      	mov	r4, r0
 80e0758:	3a01      	subs	r2, #1
 80e075a:	eb06 0082 	add.w	r0, r6, r2, lsl #2
 80e075e:	f7ff ffa5 	bl	80e06ac <__flash_get_sector>
 80e0762:	4601      	mov	r1, r0
 80e0764:	4620      	mov	r0, r4
 80e0766:	f7ff ff7d 	bl	80e0664 <flash_erase>
 80e076a:	b9d8      	cbnz	r0, 80e07a4 <flash_write+0x70>
 80e076c:	4620      	mov	r0, r4
 80e076e:	f8df 8038 	ldr.w	r8, [pc, #56]	; 80e07a8 <flash_write+0x74>
 80e0772:	f7ff ffd6 	bl	80e0722 <flash_get_sector_starting_address>
 80e0776:	4604      	mov	r4, r0
 80e0778:	f000 fe94 	bl	80e14a4 <HAL_FLASH_Unlock>
 80e077c:	f504 3700 	add.w	r7, r4, #131072	; 0x20000
 80e0780:	1b2e      	subs	r6, r5, r4
 80e0782:	4544      	cmp	r4, r8
 80e0784:	d8df      	bhi.n	80e0746 <flash_write+0x12>
 80e0786:	1932      	adds	r2, r6, r4
 80e0788:	4621      	mov	r1, r4
 80e078a:	2001      	movs	r0, #1
 80e078c:	f000 fedc 	bl	80e1548 <HAL_FLASH_Program>
 80e0790:	4605      	mov	r5, r0
 80e0792:	b928      	cbnz	r0, 80e07a0 <flash_write+0x6c>
 80e0794:	3420      	adds	r4, #32
 80e0796:	42bc      	cmp	r4, r7
 80e0798:	d1f3      	bne.n	80e0782 <flash_write+0x4e>
 80e079a:	f000 fe95 	bl	80e14c8 <HAL_FLASH_Lock>
 80e079e:	e7d3      	b.n	80e0748 <flash_write+0x14>
 80e07a0:	f000 fe92 	bl	80e14c8 <HAL_FLASH_Lock>
 80e07a4:	25ff      	movs	r5, #255	; 0xff
 80e07a6:	e7cf      	b.n	80e0748 <flash_write+0x14>
 80e07a8:	080bffff 	.word	0x080bffff

080e07ac <Error_Handler>:
 80e07ac:	b510      	push	{r4, lr}
 80e07ae:	b672      	cpsid	i
 80e07b0:	4c04      	ldr	r4, [pc, #16]	; (80e07c4 <Error_Handler+0x18>)
 80e07b2:	2180      	movs	r1, #128	; 0x80
 80e07b4:	4620      	mov	r0, r4
 80e07b6:	f001 f874 	bl	80e18a2 <HAL_GPIO_TogglePin>
 80e07ba:	4b03      	ldr	r3, [pc, #12]	; (80e07c8 <Error_Handler+0x1c>)
 80e07bc:	bf00      	nop
 80e07be:	3b01      	subs	r3, #1
 80e07c0:	d1fc      	bne.n	80e07bc <Error_Handler+0x10>
 80e07c2:	e7f6      	b.n	80e07b2 <Error_Handler+0x6>
 80e07c4:	58021800 	.word	0x58021800
 80e07c8:	00989680 	.word	0x00989680

080e07cc <SystemClock_Config>:
 80e07cc:	b500      	push	{lr}
 80e07ce:	b09d      	sub	sp, #116	; 0x74
 80e07d0:	224c      	movs	r2, #76	; 0x4c
 80e07d2:	2100      	movs	r1, #0
 80e07d4:	a809      	add	r0, sp, #36	; 0x24
 80e07d6:	f002 fc4d 	bl	80e3074 <memset>
 80e07da:	2220      	movs	r2, #32
 80e07dc:	2100      	movs	r1, #0
 80e07de:	a801      	add	r0, sp, #4
 80e07e0:	f002 fc48 	bl	80e3074 <memset>
 80e07e4:	2002      	movs	r0, #2
 80e07e6:	f001 f865 	bl	80e18b4 <HAL_PWREx_ConfigSupply>
 80e07ea:	2300      	movs	r3, #0
 80e07ec:	9300      	str	r3, [sp, #0]
 80e07ee:	4b22      	ldr	r3, [pc, #136]	; (80e0878 <SystemClock_Config+0xac>)
 80e07f0:	699a      	ldr	r2, [r3, #24]
 80e07f2:	f422 4240 	bic.w	r2, r2, #49152	; 0xc000
 80e07f6:	619a      	str	r2, [r3, #24]
 80e07f8:	699a      	ldr	r2, [r3, #24]
 80e07fa:	f402 4240 	and.w	r2, r2, #49152	; 0xc000
 80e07fe:	9200      	str	r2, [sp, #0]
 80e0800:	9a00      	ldr	r2, [sp, #0]
 80e0802:	699a      	ldr	r2, [r3, #24]
 80e0804:	0490      	lsls	r0, r2, #18
 80e0806:	d5fc      	bpl.n	80e0802 <SystemClock_Config+0x36>
 80e0808:	4a1c      	ldr	r2, [pc, #112]	; (80e087c <SystemClock_Config+0xb0>)
 80e080a:	212c      	movs	r1, #44	; 0x2c
 80e080c:	a809      	add	r0, sp, #36	; 0x24
 80e080e:	6a93      	ldr	r3, [r2, #40]	; 0x28
 80e0810:	f023 0303 	bic.w	r3, r3, #3
 80e0814:	f043 0302 	orr.w	r3, r3, #2
 80e0818:	6293      	str	r3, [r2, #40]	; 0x28
 80e081a:	2201      	movs	r2, #1
 80e081c:	f44f 3380 	mov.w	r3, #65536	; 0x10000
 80e0820:	e9cd 1215 	strd	r1, r2, [sp, #84]	; 0x54
 80e0824:	e9cd 2309 	strd	r2, r3, [sp, #36]	; 0x24
 80e0828:	2302      	movs	r3, #2
 80e082a:	2204      	movs	r2, #4
 80e082c:	210c      	movs	r1, #12
 80e082e:	9314      	str	r3, [sp, #80]	; 0x50
 80e0830:	e9cd 3312 	strd	r3, r3, [sp, #72]	; 0x48
 80e0834:	e9cd 2317 	strd	r2, r3, [sp, #92]	; 0x5c
 80e0838:	2300      	movs	r3, #0
 80e083a:	e9cd 1319 	strd	r1, r3, [sp, #100]	; 0x64
 80e083e:	931b      	str	r3, [sp, #108]	; 0x6c
 80e0840:	f001 f85c 	bl	80e18fc <HAL_RCC_OscConfig>
 80e0844:	b108      	cbz	r0, 80e084a <SystemClock_Config+0x7e>
 80e0846:	f7ff ffb1 	bl	80e07ac <Error_Handler>
 80e084a:	233f      	movs	r3, #63	; 0x3f
 80e084c:	2103      	movs	r1, #3
 80e084e:	2208      	movs	r2, #8
 80e0850:	9003      	str	r0, [sp, #12]
 80e0852:	a801      	add	r0, sp, #4
 80e0854:	e9cd 3101 	strd	r3, r1, [sp, #4]
 80e0858:	2340      	movs	r3, #64	; 0x40
 80e085a:	e9cd 2304 	strd	r2, r3, [sp, #16]
 80e085e:	f44f 6280 	mov.w	r2, #1024	; 0x400
 80e0862:	9306      	str	r3, [sp, #24]
 80e0864:	e9cd 2307 	strd	r2, r3, [sp, #28]
 80e0868:	f001 fb48 	bl	80e1efc <HAL_RCC_ClockConfig>
 80e086c:	2800      	cmp	r0, #0
 80e086e:	d1ea      	bne.n	80e0846 <SystemClock_Config+0x7a>
 80e0870:	b01d      	add	sp, #116	; 0x74
 80e0872:	f85d fb04 	ldr.w	pc, [sp], #4
 80e0876:	bf00      	nop
 80e0878:	58024800 	.word	0x58024800
 80e087c:	58024400 	.word	0x58024400

080e0880 <main>:
 80e0880:	b580      	push	{r7, lr}
 80e0882:	2614      	movs	r6, #20
 80e0884:	b08e      	sub	sp, #56	; 0x38
 80e0886:	f000 fa0d 	bl	80e0ca4 <HAL_Init>
 80e088a:	2500      	movs	r5, #0
 80e088c:	f7ff ff9e 	bl	80e07cc <SystemClock_Config>
 80e0890:	4632      	mov	r2, r6
 80e0892:	2100      	movs	r1, #0
 80e0894:	a809      	add	r0, sp, #36	; 0x24
 80e0896:	f002 fbed 	bl	80e3074 <memset>
 80e089a:	4b61      	ldr	r3, [pc, #388]	; (80e0a20 <main+0x1a0>)
 80e089c:	f44f 71f8 	mov.w	r1, #496	; 0x1f0
 80e08a0:	4860      	ldr	r0, [pc, #384]	; (80e0a24 <main+0x1a4>)
 80e08a2:	f8d3 20e0 	ldr.w	r2, [r3, #224]	; 0xe0
 80e08a6:	2701      	movs	r7, #1
 80e08a8:	4c5f      	ldr	r4, [pc, #380]	; (80e0a28 <main+0x1a8>)
 80e08aa:	f04f 0810 	mov.w	r8, #16
 80e08ae:	f042 0204 	orr.w	r2, r2, #4
 80e08b2:	f8c3 20e0 	str.w	r2, [r3, #224]	; 0xe0
 80e08b6:	f8d3 20e0 	ldr.w	r2, [r3, #224]	; 0xe0
 80e08ba:	f002 0204 	and.w	r2, r2, #4
 80e08be:	9200      	str	r2, [sp, #0]
 80e08c0:	9a00      	ldr	r2, [sp, #0]
 80e08c2:	f8d3 20e0 	ldr.w	r2, [r3, #224]	; 0xe0
 80e08c6:	f042 0280 	orr.w	r2, r2, #128	; 0x80
 80e08ca:	f8c3 20e0 	str.w	r2, [r3, #224]	; 0xe0
 80e08ce:	f8d3 20e0 	ldr.w	r2, [r3, #224]	; 0xe0
 80e08d2:	f002 0280 	and.w	r2, r2, #128	; 0x80
 80e08d6:	9201      	str	r2, [sp, #4]
 80e08d8:	9a01      	ldr	r2, [sp, #4]
 80e08da:	f8d3 20e0 	ldr.w	r2, [r3, #224]	; 0xe0
 80e08de:	f042 0240 	orr.w	r2, r2, #64	; 0x40
 80e08e2:	f8c3 20e0 	str.w	r2, [r3, #224]	; 0xe0
 80e08e6:	f8d3 20e0 	ldr.w	r2, [r3, #224]	; 0xe0
 80e08ea:	f002 0240 	and.w	r2, r2, #64	; 0x40
 80e08ee:	9202      	str	r2, [sp, #8]
 80e08f0:	9a02      	ldr	r2, [sp, #8]
 80e08f2:	f8d3 20e0 	ldr.w	r2, [r3, #224]	; 0xe0
 80e08f6:	f042 0201 	orr.w	r2, r2, #1
 80e08fa:	f8c3 20e0 	str.w	r2, [r3, #224]	; 0xe0
 80e08fe:	f8d3 20e0 	ldr.w	r2, [r3, #224]	; 0xe0
 80e0902:	f002 0201 	and.w	r2, r2, #1
 80e0906:	9203      	str	r2, [sp, #12]
 80e0908:	9a03      	ldr	r2, [sp, #12]
 80e090a:	f8d3 20e0 	ldr.w	r2, [r3, #224]	; 0xe0
 80e090e:	f042 0208 	orr.w	r2, r2, #8
 80e0912:	f8c3 20e0 	str.w	r2, [r3, #224]	; 0xe0
 80e0916:	f8d3 20e0 	ldr.w	r2, [r3, #224]	; 0xe0
 80e091a:	f002 0208 	and.w	r2, r2, #8
 80e091e:	9204      	str	r2, [sp, #16]
 80e0920:	9a04      	ldr	r2, [sp, #16]
 80e0922:	f8d3 20e0 	ldr.w	r2, [r3, #224]	; 0xe0
 80e0926:	f042 0202 	orr.w	r2, r2, #2
 80e092a:	f8c3 20e0 	str.w	r2, [r3, #224]	; 0xe0
 80e092e:	2200      	movs	r2, #0
 80e0930:	f8d3 30e0 	ldr.w	r3, [r3, #224]	; 0xe0
 80e0934:	f003 0302 	and.w	r3, r3, #2
 80e0938:	9305      	str	r3, [sp, #20]
 80e093a:	9b05      	ldr	r3, [sp, #20]
 80e093c:	f000 ffac 	bl	80e1898 <HAL_GPIO_WritePin>
 80e0940:	f44f 73f8 	mov.w	r3, #496	; 0x1f0
 80e0944:	a909      	add	r1, sp, #36	; 0x24
 80e0946:	4837      	ldr	r0, [pc, #220]	; (80e0a24 <main+0x1a4>)
 80e0948:	e9cd 3709 	strd	r3, r7, [sp, #36]	; 0x24
 80e094c:	e9cd 550b 	strd	r5, r5, [sp, #44]	; 0x2c
 80e0950:	f000 febc 	bl	80e16cc <HAL_GPIO_Init>
 80e0954:	4b35      	ldr	r3, [pc, #212]	; (80e0a2c <main+0x1ac>)
 80e0956:	4620      	mov	r0, r4
 80e0958:	8227      	strh	r7, [r4, #16]
 80e095a:	6023      	str	r3, [r4, #0]
 80e095c:	f44f 7340 	mov.w	r3, #768	; 0x300
 80e0960:	74a5      	strb	r5, [r4, #18]
 80e0962:	6167      	str	r7, [r4, #20]
 80e0964:	f8c4 8040 	str.w	r8, [r4, #64]	; 0x40
 80e0968:	e9c4 3502 	strd	r3, r5, [r4, #8]
 80e096c:	233b      	movs	r3, #59	; 0x3b
 80e096e:	e9c4 6708 	strd	r6, r7, [r4, #32]
 80e0972:	e9c4 8306 	strd	r8, r3, [r4, #24]
 80e0976:	2604      	movs	r6, #4
 80e0978:	230e      	movs	r3, #14
 80e097a:	e9c4 630a 	strd	r6, r3, [r4, #40]	; 0x28
 80e097e:	2305      	movs	r3, #5
 80e0980:	e9c4 350c 	strd	r3, r5, [r4, #48]	; 0x30
 80e0984:	2312      	movs	r3, #18
 80e0986:	e9c4 750e 	strd	r7, r5, [r4, #56]	; 0x38
 80e098a:	e9c4 3511 	strd	r3, r5, [r4, #68]	; 0x44
 80e098e:	e9c4 3513 	strd	r3, r5, [r4, #76]	; 0x4c
 80e0992:	e9c4 3515 	strd	r3, r5, [r4, #84]	; 0x54
 80e0996:	e9c4 5817 	strd	r5, r8, [r4, #92]	; 0x5c
 80e099a:	e9c4 5319 	strd	r5, r3, [r4, #100]	; 0x64
 80e099e:	f000 fa57 	bl	80e0e50 <HAL_FDCAN_Init>
 80e09a2:	4606      	mov	r6, r0
 80e09a4:	b108      	cbz	r0, 80e09aa <main+0x12a>
 80e09a6:	f7ff ff01 	bl	80e07ac <Error_Handler>
 80e09aa:	4601      	mov	r1, r0
 80e09ac:	4642      	mov	r2, r8
 80e09ae:	a809      	add	r0, sp, #36	; 0x24
 80e09b0:	4d1f      	ldr	r5, [pc, #124]	; (80e0a30 <main+0x1b0>)
 80e09b2:	f002 fb5f 	bl	80e3074 <memset>
 80e09b6:	f24d 63d8 	movw	r3, #55000	; 0xd6d8
 80e09ba:	4a1e      	ldr	r2, [pc, #120]	; (80e0a34 <main+0x1b4>)
 80e09bc:	f04f 31ff 	mov.w	r1, #4294967295
 80e09c0:	4628      	mov	r0, r5
 80e09c2:	9608      	str	r6, [sp, #32]
 80e09c4:	60ae      	str	r6, [r5, #8]
 80e09c6:	61ae      	str	r6, [r5, #24]
 80e09c8:	e9c5 2300 	strd	r2, r3, [r5]
 80e09cc:	f44f 7380 	mov.w	r3, #256	; 0x100
 80e09d0:	e9cd 6606 	strd	r6, r6, [sp, #24]
 80e09d4:	e9c5 1303 	strd	r1, r3, [r5, #12]
 80e09d8:	f002 f9ce 	bl	80e2d78 <HAL_TIM_Base_Init>
 80e09dc:	2800      	cmp	r0, #0
 80e09de:	d1e2      	bne.n	80e09a6 <main+0x126>
 80e09e0:	f44f 5380 	mov.w	r3, #4096	; 0x1000
 80e09e4:	a909      	add	r1, sp, #36	; 0x24
 80e09e6:	4628      	mov	r0, r5
 80e09e8:	9309      	str	r3, [sp, #36]	; 0x24
 80e09ea:	f002 f9ff 	bl	80e2dec <HAL_TIM_ConfigClockSource>
 80e09ee:	2800      	cmp	r0, #0
 80e09f0:	d1d9      	bne.n	80e09a6 <main+0x126>
 80e09f2:	9006      	str	r0, [sp, #24]
 80e09f4:	a906      	add	r1, sp, #24
 80e09f6:	9008      	str	r0, [sp, #32]
 80e09f8:	4628      	mov	r0, r5
 80e09fa:	f002 fab7 	bl	80e2f6c <HAL_TIMEx_MasterConfigSynchronization>
 80e09fe:	4606      	mov	r6, r0
 80e0a00:	2800      	cmp	r0, #0
 80e0a02:	d1d0      	bne.n	80e09a6 <main+0x126>
 80e0a04:	4628      	mov	r0, r5
 80e0a06:	f002 f907 	bl	80e2c18 <HAL_TIM_Base_Start>
 80e0a0a:	4620      	mov	r0, r4
 80e0a0c:	f000 fc0a 	bl	80e1224 <HAL_FDCAN_Start>
 80e0a10:	4632      	mov	r2, r6
 80e0a12:	4639      	mov	r1, r7
 80e0a14:	4620      	mov	r0, r4
 80e0a16:	f000 fd07 	bl	80e1428 <HAL_FDCAN_ActivateNotification>
 80e0a1a:	f7ff fd9a 	bl	80e0552 <bootloader_start>
 80e0a1e:	e7fe      	b.n	80e0a1e <main+0x19e>
 80e0a20:	58024400 	.word	0x58024400
 80e0a24:	58021800 	.word	0x58021800
 80e0a28:	2400008c 	.word	0x2400008c
 80e0a2c:	4000a000 	.word	0x4000a000
 80e0a30:	2400012c 	.word	0x2400012c
 80e0a34:	4000e000 	.word	0x4000e000

080e0a38 <HAL_MspInit>:
 80e0a38:	4b07      	ldr	r3, [pc, #28]	; (80e0a58 <HAL_MspInit+0x20>)
 80e0a3a:	b082      	sub	sp, #8
 80e0a3c:	f8d3 20f4 	ldr.w	r2, [r3, #244]	; 0xf4
 80e0a40:	f042 0202 	orr.w	r2, r2, #2
 80e0a44:	f8c3 20f4 	str.w	r2, [r3, #244]	; 0xf4
 80e0a48:	f8d3 30f4 	ldr.w	r3, [r3, #244]	; 0xf4
 80e0a4c:	f003 0302 	and.w	r3, r3, #2
 80e0a50:	9301      	str	r3, [sp, #4]
 80e0a52:	9b01      	ldr	r3, [sp, #4]
 80e0a54:	b002      	add	sp, #8
 80e0a56:	4770      	bx	lr
 80e0a58:	58024400 	.word	0x58024400

080e0a5c <HAL_FDCAN_MspInit>:
 80e0a5c:	b510      	push	{r4, lr}
 80e0a5e:	b0b4      	sub	sp, #208	; 0xd0
 80e0a60:	4604      	mov	r4, r0
 80e0a62:	2214      	movs	r2, #20
 80e0a64:	2100      	movs	r1, #0
 80e0a66:	a802      	add	r0, sp, #8
 80e0a68:	f002 fb04 	bl	80e3074 <memset>
 80e0a6c:	22b4      	movs	r2, #180	; 0xb4
 80e0a6e:	2100      	movs	r1, #0
 80e0a70:	a807      	add	r0, sp, #28
 80e0a72:	f002 faff 	bl	80e3074 <memset>
 80e0a76:	6822      	ldr	r2, [r4, #0]
 80e0a78:	4b20      	ldr	r3, [pc, #128]	; (80e0afc <HAL_FDCAN_MspInit+0xa0>)
 80e0a7a:	429a      	cmp	r2, r3
 80e0a7c:	d13c      	bne.n	80e0af8 <HAL_FDCAN_MspInit+0x9c>
 80e0a7e:	2319      	movs	r3, #25
 80e0a80:	f44f 4100 	mov.w	r1, #32768	; 0x8000
 80e0a84:	20c8      	movs	r0, #200	; 0xc8
 80e0a86:	220a      	movs	r2, #10
 80e0a88:	e9cd 1307 	strd	r1, r3, [sp, #28]
 80e0a8c:	2302      	movs	r3, #2
 80e0a8e:	e9cd 0309 	strd	r0, r3, [sp, #36]	; 0x24
 80e0a92:	e9cd 230b 	strd	r2, r3, [sp, #44]	; 0x2c
 80e0a96:	2320      	movs	r3, #32
 80e0a98:	a807      	add	r0, sp, #28
 80e0a9a:	930e      	str	r3, [sp, #56]	; 0x38
 80e0a9c:	f04f 5300 	mov.w	r3, #536870912	; 0x20000000
 80e0aa0:	9321      	str	r3, [sp, #132]	; 0x84
 80e0aa2:	f001 fc41 	bl	80e2328 <HAL_RCCEx_PeriphCLKConfig>
 80e0aa6:	b108      	cbz	r0, 80e0aac <HAL_FDCAN_MspInit+0x50>
 80e0aa8:	f7ff fe80 	bl	80e07ac <Error_Handler>
 80e0aac:	4b14      	ldr	r3, [pc, #80]	; (80e0b00 <HAL_FDCAN_MspInit+0xa4>)
 80e0aae:	a902      	add	r1, sp, #8
 80e0ab0:	4814      	ldr	r0, [pc, #80]	; (80e0b04 <HAL_FDCAN_MspInit+0xa8>)
 80e0ab2:	f8d3 20ec 	ldr.w	r2, [r3, #236]	; 0xec
 80e0ab6:	f442 7280 	orr.w	r2, r2, #256	; 0x100
 80e0aba:	f8c3 20ec 	str.w	r2, [r3, #236]	; 0xec
 80e0abe:	f8d3 20ec 	ldr.w	r2, [r3, #236]	; 0xec
 80e0ac2:	f402 7280 	and.w	r2, r2, #256	; 0x100
 80e0ac6:	9200      	str	r2, [sp, #0]
 80e0ac8:	9a00      	ldr	r2, [sp, #0]
 80e0aca:	f8d3 20e0 	ldr.w	r2, [r3, #224]	; 0xe0
 80e0ace:	f042 0208 	orr.w	r2, r2, #8
 80e0ad2:	f8c3 20e0 	str.w	r2, [r3, #224]	; 0xe0
 80e0ad6:	2203      	movs	r2, #3
 80e0ad8:	f8d3 30e0 	ldr.w	r3, [r3, #224]	; 0xe0
 80e0adc:	f003 0308 	and.w	r3, r3, #8
 80e0ae0:	9301      	str	r3, [sp, #4]
 80e0ae2:	9b01      	ldr	r3, [sp, #4]
 80e0ae4:	2302      	movs	r3, #2
 80e0ae6:	e9cd 2302 	strd	r2, r3, [sp, #8]
 80e0aea:	2300      	movs	r3, #0
 80e0aec:	e9cd 3304 	strd	r3, r3, [sp, #16]
 80e0af0:	2309      	movs	r3, #9
 80e0af2:	9306      	str	r3, [sp, #24]
 80e0af4:	f000 fdea 	bl	80e16cc <HAL_GPIO_Init>
 80e0af8:	b034      	add	sp, #208	; 0xd0
 80e0afa:	bd10      	pop	{r4, pc}
 80e0afc:	4000a000 	.word	0x4000a000
 80e0b00:	58024400 	.word	0x58024400
 80e0b04:	58020c00 	.word	0x58020c00

080e0b08 <HAL_TIM_Base_MspInit>:
 80e0b08:	6802      	ldr	r2, [r0, #0]
 80e0b0a:	b082      	sub	sp, #8
 80e0b0c:	4b08      	ldr	r3, [pc, #32]	; (80e0b30 <HAL_TIM_Base_MspInit+0x28>)
 80e0b0e:	429a      	cmp	r2, r3
 80e0b10:	d10c      	bne.n	80e0b2c <HAL_TIM_Base_MspInit+0x24>
 80e0b12:	4b08      	ldr	r3, [pc, #32]	; (80e0b34 <HAL_TIM_Base_MspInit+0x2c>)
 80e0b14:	f8d3 20ec 	ldr.w	r2, [r3, #236]	; 0xec
 80e0b18:	f042 7280 	orr.w	r2, r2, #16777216	; 0x1000000
 80e0b1c:	f8c3 20ec 	str.w	r2, [r3, #236]	; 0xec
 80e0b20:	f8d3 30ec 	ldr.w	r3, [r3, #236]	; 0xec
 80e0b24:	f003 7380 	and.w	r3, r3, #16777216	; 0x1000000
 80e0b28:	9301      	str	r3, [sp, #4]
 80e0b2a:	9b01      	ldr	r3, [sp, #4]
 80e0b2c:	b002      	add	sp, #8
 80e0b2e:	4770      	bx	lr
 80e0b30:	4000e000 	.word	0x4000e000
 80e0b34:	58024400 	.word	0x58024400

080e0b38 <NMI_Handler>:
 80e0b38:	e7fe      	b.n	80e0b38 <NMI_Handler>
	...

080e0b3c <HardFault_Handler>:
 80e0b3c:	2201      	movs	r2, #1
 80e0b3e:	2180      	movs	r1, #128	; 0x80
 80e0b40:	4802      	ldr	r0, [pc, #8]	; (80e0b4c <HardFault_Handler+0x10>)
 80e0b42:	b508      	push	{r3, lr}
 80e0b44:	f000 fea8 	bl	80e1898 <HAL_GPIO_WritePin>
 80e0b48:	e7fe      	b.n	80e0b48 <HardFault_Handler+0xc>
 80e0b4a:	bf00      	nop
 80e0b4c:	58021800 	.word	0x58021800

080e0b50 <MemManage_Handler>:
 80e0b50:	e7fe      	b.n	80e0b50 <MemManage_Handler>

080e0b52 <BusFault_Handler>:
 80e0b52:	e7fe      	b.n	80e0b52 <BusFault_Handler>

080e0b54 <UsageFault_Handler>:
 80e0b54:	e7fe      	b.n	80e0b54 <UsageFault_Handler>

080e0b56 <SVC_Handler>:
 80e0b56:	4770      	bx	lr

080e0b58 <DebugMon_Handler>:
 80e0b58:	4770      	bx	lr

080e0b5a <PendSV_Handler>:
 80e0b5a:	4770      	bx	lr

080e0b5c <SysTick_Handler>:
 80e0b5c:	f000 b8d0 	b.w	80e0d00 <HAL_IncTick>

080e0b60 <SystemInit>:
 80e0b60:	4a20      	ldr	r2, [pc, #128]	; (80e0be4 <SystemInit+0x84>)
 80e0b62:	f8d2 3088 	ldr.w	r3, [r2, #136]	; 0x88
 80e0b66:	f443 0370 	orr.w	r3, r3, #15728640	; 0xf00000
 80e0b6a:	f8c2 3088 	str.w	r3, [r2, #136]	; 0x88
 80e0b6e:	4a1e      	ldr	r2, [pc, #120]	; (80e0be8 <SystemInit+0x88>)
 80e0b70:	6813      	ldr	r3, [r2, #0]
 80e0b72:	f003 030f 	and.w	r3, r3, #15
 80e0b76:	2b06      	cmp	r3, #6
 80e0b78:	d805      	bhi.n	80e0b86 <SystemInit+0x26>
 80e0b7a:	6813      	ldr	r3, [r2, #0]
 80e0b7c:	f023 030f 	bic.w	r3, r3, #15
 80e0b80:	f043 0307 	orr.w	r3, r3, #7
 80e0b84:	6013      	str	r3, [r2, #0]
 80e0b86:	4b19      	ldr	r3, [pc, #100]	; (80e0bec <SystemInit+0x8c>)
 80e0b88:	681a      	ldr	r2, [r3, #0]
 80e0b8a:	f042 0201 	orr.w	r2, r2, #1
 80e0b8e:	601a      	str	r2, [r3, #0]
 80e0b90:	2200      	movs	r2, #0
 80e0b92:	611a      	str	r2, [r3, #16]
 80e0b94:	4a16      	ldr	r2, [pc, #88]	; (80e0bf0 <SystemInit+0x90>)
 80e0b96:	6819      	ldr	r1, [r3, #0]
 80e0b98:	400a      	ands	r2, r1
 80e0b9a:	4913      	ldr	r1, [pc, #76]	; (80e0be8 <SystemInit+0x88>)
 80e0b9c:	601a      	str	r2, [r3, #0]
 80e0b9e:	680a      	ldr	r2, [r1, #0]
 80e0ba0:	0712      	lsls	r2, r2, #28
 80e0ba2:	d505      	bpl.n	80e0bb0 <SystemInit+0x50>
 80e0ba4:	680a      	ldr	r2, [r1, #0]
 80e0ba6:	f022 020f 	bic.w	r2, r2, #15
 80e0baa:	f042 0207 	orr.w	r2, r2, #7
 80e0bae:	600a      	str	r2, [r1, #0]
 80e0bb0:	2200      	movs	r2, #0
 80e0bb2:	4910      	ldr	r1, [pc, #64]	; (80e0bf4 <SystemInit+0x94>)
 80e0bb4:	619a      	str	r2, [r3, #24]
 80e0bb6:	61da      	str	r2, [r3, #28]
 80e0bb8:	621a      	str	r2, [r3, #32]
 80e0bba:	6299      	str	r1, [r3, #40]	; 0x28
 80e0bbc:	490e      	ldr	r1, [pc, #56]	; (80e0bf8 <SystemInit+0x98>)
 80e0bbe:	62d9      	str	r1, [r3, #44]	; 0x2c
 80e0bc0:	490e      	ldr	r1, [pc, #56]	; (80e0bfc <SystemInit+0x9c>)
 80e0bc2:	6319      	str	r1, [r3, #48]	; 0x30
 80e0bc4:	635a      	str	r2, [r3, #52]	; 0x34
 80e0bc6:	6399      	str	r1, [r3, #56]	; 0x38
 80e0bc8:	63da      	str	r2, [r3, #60]	; 0x3c
 80e0bca:	6419      	str	r1, [r3, #64]	; 0x40
 80e0bcc:	645a      	str	r2, [r3, #68]	; 0x44
 80e0bce:	6819      	ldr	r1, [r3, #0]
 80e0bd0:	f421 2180 	bic.w	r1, r1, #262144	; 0x40000
 80e0bd4:	6019      	str	r1, [r3, #0]
 80e0bd6:	661a      	str	r2, [r3, #96]	; 0x60
 80e0bd8:	f243 02d2 	movw	r2, #12498	; 0x30d2
 80e0bdc:	4b08      	ldr	r3, [pc, #32]	; (80e0c00 <SystemInit+0xa0>)
 80e0bde:	601a      	str	r2, [r3, #0]
 80e0be0:	4770      	bx	lr
 80e0be2:	bf00      	nop
 80e0be4:	e000ed00 	.word	0xe000ed00
 80e0be8:	52002000 	.word	0x52002000
 80e0bec:	58024400 	.word	0x58024400
 80e0bf0:	eaf6ed7f 	.word	0xeaf6ed7f
 80e0bf4:	02020200 	.word	0x02020200
 80e0bf8:	01ff0000 	.word	0x01ff0000
 80e0bfc:	01010280 	.word	0x01010280
 80e0c00:	52004000 	.word	0x52004000

080e0c04 <Reset_Handler>:
 80e0c04:	f8df d034 	ldr.w	sp, [pc, #52]	; 80e0c3c <LoopFillZerobss+0xe>
 80e0c08:	f7ff ffaa 	bl	80e0b60 <SystemInit>
 80e0c0c:	480c      	ldr	r0, [pc, #48]	; (80e0c40 <LoopFillZerobss+0x12>)
 80e0c0e:	490d      	ldr	r1, [pc, #52]	; (80e0c44 <LoopFillZerobss+0x16>)
 80e0c10:	4a0d      	ldr	r2, [pc, #52]	; (80e0c48 <LoopFillZerobss+0x1a>)
 80e0c12:	2300      	movs	r3, #0
 80e0c14:	e002      	b.n	80e0c1c <LoopCopyDataInit>

080e0c16 <CopyDataInit>:
 80e0c16:	58d4      	ldr	r4, [r2, r3]
 80e0c18:	50c4      	str	r4, [r0, r3]
 80e0c1a:	3304      	adds	r3, #4

080e0c1c <LoopCopyDataInit>:
 80e0c1c:	18c4      	adds	r4, r0, r3
 80e0c1e:	428c      	cmp	r4, r1
 80e0c20:	d3f9      	bcc.n	80e0c16 <CopyDataInit>
 80e0c22:	4a0a      	ldr	r2, [pc, #40]	; (80e0c4c <LoopFillZerobss+0x1e>)
 80e0c24:	4c0a      	ldr	r4, [pc, #40]	; (80e0c50 <LoopFillZerobss+0x22>)
 80e0c26:	2300      	movs	r3, #0
 80e0c28:	e001      	b.n	80e0c2e <LoopFillZerobss>

080e0c2a <FillZerobss>:
 80e0c2a:	6013      	str	r3, [r2, #0]
 80e0c2c:	3204      	adds	r2, #4

080e0c2e <LoopFillZerobss>:
 80e0c2e:	42a2      	cmp	r2, r4
 80e0c30:	d3fb      	bcc.n	80e0c2a <FillZerobss>
 80e0c32:	f002 f9ed 	bl	80e3010 <__libc_init_array>
 80e0c36:	f7ff fe23 	bl	80e0880 <main>
 80e0c3a:	4770      	bx	lr
 80e0c3c:	24050000 	.word	0x24050000
 80e0c40:	24000000 	.word	0x24000000
 80e0c44:	24000010 	.word	0x24000010
 80e0c48:	080e3110 	.word	0x080e3110
 80e0c4c:	24000010 	.word	0x24000010
 80e0c50:	24000198 	.word	0x24000198

080e0c54 <ADC3_IRQHandler>:
 80e0c54:	e7fe      	b.n	80e0c54 <ADC3_IRQHandler>
	...

080e0c58 <HAL_InitTick>:
 80e0c58:	b538      	push	{r3, r4, r5, lr}
 80e0c5a:	4b0f      	ldr	r3, [pc, #60]	; (80e0c98 <HAL_InitTick+0x40>)
 80e0c5c:	4605      	mov	r5, r0
 80e0c5e:	7818      	ldrb	r0, [r3, #0]
 80e0c60:	b908      	cbnz	r0, 80e0c66 <HAL_InitTick+0xe>
 80e0c62:	2001      	movs	r0, #1
 80e0c64:	bd38      	pop	{r3, r4, r5, pc}
 80e0c66:	f44f 737a 	mov.w	r3, #1000	; 0x3e8
 80e0c6a:	4a0c      	ldr	r2, [pc, #48]	; (80e0c9c <HAL_InitTick+0x44>)
 80e0c6c:	fbb3 f3f0 	udiv	r3, r3, r0
 80e0c70:	6810      	ldr	r0, [r2, #0]
 80e0c72:	fbb0 f0f3 	udiv	r0, r0, r3
 80e0c76:	f000 f899 	bl	80e0dac <HAL_SYSTICK_Config>
 80e0c7a:	4604      	mov	r4, r0
 80e0c7c:	2800      	cmp	r0, #0
 80e0c7e:	d1f0      	bne.n	80e0c62 <HAL_InitTick+0xa>
 80e0c80:	2d0f      	cmp	r5, #15
 80e0c82:	d8ee      	bhi.n	80e0c62 <HAL_InitTick+0xa>
 80e0c84:	4602      	mov	r2, r0
 80e0c86:	4629      	mov	r1, r5
 80e0c88:	f04f 30ff 	mov.w	r0, #4294967295
 80e0c8c:	f000 f85c 	bl	80e0d48 <HAL_NVIC_SetPriority>
 80e0c90:	4b03      	ldr	r3, [pc, #12]	; (80e0ca0 <HAL_InitTick+0x48>)
 80e0c92:	4620      	mov	r0, r4
 80e0c94:	601d      	str	r5, [r3, #0]
 80e0c96:	e7e5      	b.n	80e0c64 <HAL_InitTick+0xc>
 80e0c98:	24000008 	.word	0x24000008
 80e0c9c:	24000000 	.word	0x24000000
 80e0ca0:	2400000c 	.word	0x2400000c

080e0ca4 <HAL_Init>:
 80e0ca4:	b510      	push	{r4, lr}
 80e0ca6:	2003      	movs	r0, #3
 80e0ca8:	f000 f83c 	bl	80e0d24 <HAL_NVIC_SetPriorityGrouping>
 80e0cac:	f001 f886 	bl	80e1dbc <HAL_RCC_GetSysClockFreq>
 80e0cb0:	490f      	ldr	r1, [pc, #60]	; (80e0cf0 <HAL_Init+0x4c>)
 80e0cb2:	4a10      	ldr	r2, [pc, #64]	; (80e0cf4 <HAL_Init+0x50>)
 80e0cb4:	698b      	ldr	r3, [r1, #24]
 80e0cb6:	f3c3 2303 	ubfx	r3, r3, #8, #4
 80e0cba:	5cd3      	ldrb	r3, [r2, r3]
 80e0cbc:	f003 031f 	and.w	r3, r3, #31
 80e0cc0:	40d8      	lsrs	r0, r3
 80e0cc2:	698b      	ldr	r3, [r1, #24]
 80e0cc4:	f003 030f 	and.w	r3, r3, #15
 80e0cc8:	5cd3      	ldrb	r3, [r2, r3]
 80e0cca:	4a0b      	ldr	r2, [pc, #44]	; (80e0cf8 <HAL_Init+0x54>)
 80e0ccc:	f003 031f 	and.w	r3, r3, #31
 80e0cd0:	fa20 f303 	lsr.w	r3, r0, r3
 80e0cd4:	6013      	str	r3, [r2, #0]
 80e0cd6:	4b09      	ldr	r3, [pc, #36]	; (80e0cfc <HAL_Init+0x58>)
 80e0cd8:	6018      	str	r0, [r3, #0]
 80e0cda:	2000      	movs	r0, #0
 80e0cdc:	f7ff ffbc 	bl	80e0c58 <HAL_InitTick>
 80e0ce0:	4604      	mov	r4, r0
 80e0ce2:	b918      	cbnz	r0, 80e0cec <HAL_Init+0x48>
 80e0ce4:	f7ff fea8 	bl	80e0a38 <HAL_MspInit>
 80e0ce8:	4620      	mov	r0, r4
 80e0cea:	bd10      	pop	{r4, pc}
 80e0cec:	2401      	movs	r4, #1
 80e0cee:	e7fb      	b.n	80e0ce8 <HAL_Init+0x44>
 80e0cf0:	58024400 	.word	0x58024400
 80e0cf4:	080e30e8 	.word	0x080e30e8
 80e0cf8:	24000004 	.word	0x24000004
 80e0cfc:	24000000 	.word	0x24000000

080e0d00 <HAL_IncTick>:
 80e0d00:	4a03      	ldr	r2, [pc, #12]	; (80e0d10 <HAL_IncTick+0x10>)
 80e0d02:	4b04      	ldr	r3, [pc, #16]	; (80e0d14 <HAL_IncTick+0x14>)
 80e0d04:	6811      	ldr	r1, [r2, #0]
 80e0d06:	781b      	ldrb	r3, [r3, #0]
 80e0d08:	440b      	add	r3, r1
 80e0d0a:	6013      	str	r3, [r2, #0]
 80e0d0c:	4770      	bx	lr
 80e0d0e:	bf00      	nop
 80e0d10:	24000178 	.word	0x24000178
 80e0d14:	24000008 	.word	0x24000008

080e0d18 <HAL_GetTick>:
 80e0d18:	4b01      	ldr	r3, [pc, #4]	; (80e0d20 <HAL_GetTick+0x8>)
 80e0d1a:	6818      	ldr	r0, [r3, #0]
 80e0d1c:	4770      	bx	lr
 80e0d1e:	bf00      	nop
 80e0d20:	24000178 	.word	0x24000178

080e0d24 <HAL_NVIC_SetPriorityGrouping>:
 80e0d24:	4907      	ldr	r1, [pc, #28]	; (80e0d44 <HAL_NVIC_SetPriorityGrouping+0x20>)
 80e0d26:	0203      	lsls	r3, r0, #8
 80e0d28:	68ca      	ldr	r2, [r1, #12]
 80e0d2a:	f403 63e0 	and.w	r3, r3, #1792	; 0x700
 80e0d2e:	f422 62e0 	bic.w	r2, r2, #1792	; 0x700
 80e0d32:	0412      	lsls	r2, r2, #16
 80e0d34:	0c12      	lsrs	r2, r2, #16
 80e0d36:	4313      	orrs	r3, r2
 80e0d38:	f043 63bf 	orr.w	r3, r3, #100139008	; 0x5f80000
 80e0d3c:	f443 3300 	orr.w	r3, r3, #131072	; 0x20000
 80e0d40:	60cb      	str	r3, [r1, #12]
 80e0d42:	4770      	bx	lr
 80e0d44:	e000ed00 	.word	0xe000ed00

080e0d48 <HAL_NVIC_SetPriority>:
 80e0d48:	4b16      	ldr	r3, [pc, #88]	; (80e0da4 <HAL_NVIC_SetPriority+0x5c>)
 80e0d4a:	b530      	push	{r4, r5, lr}
 80e0d4c:	68dc      	ldr	r4, [r3, #12]
 80e0d4e:	f3c4 2402 	ubfx	r4, r4, #8, #3
 80e0d52:	f1c4 0507 	rsb	r5, r4, #7
 80e0d56:	1d23      	adds	r3, r4, #4
 80e0d58:	2d04      	cmp	r5, #4
 80e0d5a:	bf28      	it	cs
 80e0d5c:	2504      	movcs	r5, #4
 80e0d5e:	2b06      	cmp	r3, #6
 80e0d60:	f04f 33ff 	mov.w	r3, #4294967295
 80e0d64:	bf8c      	ite	hi
 80e0d66:	3c03      	subhi	r4, #3
 80e0d68:	2400      	movls	r4, #0
 80e0d6a:	fa03 f505 	lsl.w	r5, r3, r5
 80e0d6e:	2800      	cmp	r0, #0
 80e0d70:	fa03 f304 	lsl.w	r3, r3, r4
 80e0d74:	ea21 0105 	bic.w	r1, r1, r5
 80e0d78:	ea22 0203 	bic.w	r2, r2, r3
 80e0d7c:	fa01 f104 	lsl.w	r1, r1, r4
 80e0d80:	ea41 0302 	orr.w	r3, r1, r2
 80e0d84:	ea4f 1303 	mov.w	r3, r3, lsl #4
 80e0d88:	b2db      	uxtb	r3, r3
 80e0d8a:	db06      	blt.n	80e0d9a <HAL_NVIC_SetPriority+0x52>
 80e0d8c:	f100 4060 	add.w	r0, r0, #3758096384	; 0xe0000000
 80e0d90:	f500 4061 	add.w	r0, r0, #57600	; 0xe100
 80e0d94:	f880 3300 	strb.w	r3, [r0, #768]	; 0x300
 80e0d98:	bd30      	pop	{r4, r5, pc}
 80e0d9a:	f000 000f 	and.w	r0, r0, #15
 80e0d9e:	4a02      	ldr	r2, [pc, #8]	; (80e0da8 <HAL_NVIC_SetPriority+0x60>)
 80e0da0:	5413      	strb	r3, [r2, r0]
 80e0da2:	e7f9      	b.n	80e0d98 <HAL_NVIC_SetPriority+0x50>
 80e0da4:	e000ed00 	.word	0xe000ed00
 80e0da8:	e000ed14 	.word	0xe000ed14

080e0dac <HAL_SYSTICK_Config>:
 80e0dac:	3801      	subs	r0, #1
 80e0dae:	f1b0 7f80 	cmp.w	r0, #16777216	; 0x1000000
 80e0db2:	d20b      	bcs.n	80e0dcc <HAL_SYSTICK_Config+0x20>
 80e0db4:	f04f 23e0 	mov.w	r3, #3758153728	; 0xe000e000
 80e0db8:	4a05      	ldr	r2, [pc, #20]	; (80e0dd0 <HAL_SYSTICK_Config+0x24>)
 80e0dba:	21f0      	movs	r1, #240	; 0xf0
 80e0dbc:	6158      	str	r0, [r3, #20]
 80e0dbe:	2000      	movs	r0, #0
 80e0dc0:	f882 1023 	strb.w	r1, [r2, #35]	; 0x23
 80e0dc4:	2207      	movs	r2, #7
 80e0dc6:	6198      	str	r0, [r3, #24]
 80e0dc8:	611a      	str	r2, [r3, #16]
 80e0dca:	4770      	bx	lr
 80e0dcc:	2001      	movs	r0, #1
 80e0dce:	4770      	bx	lr
 80e0dd0:	e000ed00 	.word	0xe000ed00

080e0dd4 <FDCAN_CopyMessageToRAM>:
 80e0dd4:	b5f0      	push	{r4, r5, r6, r7, lr}
 80e0dd6:	e9d1 4700 	ldrd	r4, r7, [r1]
 80e0dda:	690d      	ldr	r5, [r1, #16]
 80e0ddc:	688e      	ldr	r6, [r1, #8]
 80e0dde:	b9f7      	cbnz	r7, 80e0e1e <FDCAN_CopyMessageToRAM+0x4a>
 80e0de0:	4335      	orrs	r5, r6
 80e0de2:	ea45 4484 	orr.w	r4, r5, r4, lsl #18
 80e0de6:	e9d1 6506 	ldrd	r6, r5, [r1, #24]
 80e0dea:	4335      	orrs	r5, r6
 80e0dec:	694e      	ldr	r6, [r1, #20]
 80e0dee:	4335      	orrs	r5, r6
 80e0df0:	68ce      	ldr	r6, [r1, #12]
 80e0df2:	4335      	orrs	r5, r6
 80e0df4:	6a0e      	ldr	r6, [r1, #32]
 80e0df6:	ea45 6506 	orr.w	r5, r5, r6, lsl #24
 80e0dfa:	6e86      	ldr	r6, [r0, #104]	; 0x68
 80e0dfc:	f8d0 0084 	ldr.w	r0, [r0, #132]	; 0x84
 80e0e00:	4373      	muls	r3, r6
 80e0e02:	eb00 0683 	add.w	r6, r0, r3, lsl #2
 80e0e06:	f840 4023 	str.w	r4, [r0, r3, lsl #2]
 80e0e0a:	2000      	movs	r0, #0
 80e0e0c:	4c0f      	ldr	r4, [pc, #60]	; (80e0e4c <FDCAN_CopyMessageToRAM+0x78>)
 80e0e0e:	6075      	str	r5, [r6, #4]
 80e0e10:	3608      	adds	r6, #8
 80e0e12:	89cb      	ldrh	r3, [r1, #14]
 80e0e14:	3204      	adds	r2, #4
 80e0e16:	5ce3      	ldrb	r3, [r4, r3]
 80e0e18:	4283      	cmp	r3, r0
 80e0e1a:	d805      	bhi.n	80e0e28 <FDCAN_CopyMessageToRAM+0x54>
 80e0e1c:	bdf0      	pop	{r4, r5, r6, r7, pc}
 80e0e1e:	432c      	orrs	r4, r5
 80e0e20:	4334      	orrs	r4, r6
 80e0e22:	f044 4480 	orr.w	r4, r4, #1073741824	; 0x40000000
 80e0e26:	e7de      	b.n	80e0de6 <FDCAN_CopyMessageToRAM+0x12>
 80e0e28:	f812 3c02 	ldrb.w	r3, [r2, #-2]
 80e0e2c:	f812 5c01 	ldrb.w	r5, [r2, #-1]
 80e0e30:	041b      	lsls	r3, r3, #16
 80e0e32:	ea43 6305 	orr.w	r3, r3, r5, lsl #24
 80e0e36:	f812 5c04 	ldrb.w	r5, [r2, #-4]
 80e0e3a:	432b      	orrs	r3, r5
 80e0e3c:	f812 5c03 	ldrb.w	r5, [r2, #-3]
 80e0e40:	ea43 2305 	orr.w	r3, r3, r5, lsl #8
 80e0e44:	5033      	str	r3, [r6, r0]
 80e0e46:	3004      	adds	r0, #4
 80e0e48:	e7e3      	b.n	80e0e12 <FDCAN_CopyMessageToRAM+0x3e>
 80e0e4a:	bf00      	nop
 80e0e4c:	080e30f8 	.word	0x080e30f8

080e0e50 <HAL_FDCAN_Init>:
 80e0e50:	e92d 4ff0 	stmdb	sp!, {r4, r5, r6, r7, r8, r9, sl, fp, lr}
 80e0e54:	b099      	sub	sp, #100	; 0x64
 80e0e56:	4604      	mov	r4, r0
 80e0e58:	224c      	movs	r2, #76	; 0x4c
 80e0e5a:	49c8      	ldr	r1, [pc, #800]	; (80e117c <HAL_FDCAN_Init+0x32c>)
 80e0e5c:	a805      	add	r0, sp, #20
 80e0e5e:	f002 f8fb 	bl	80e3058 <memcpy>
 80e0e62:	2c00      	cmp	r4, #0
 80e0e64:	f000 81b6 	beq.w	80e11d4 <HAL_FDCAN_Init+0x384>
 80e0e68:	4bc5      	ldr	r3, [pc, #788]	; (80e1180 <HAL_FDCAN_Init+0x330>)
 80e0e6a:	6822      	ldr	r2, [r4, #0]
 80e0e6c:	429a      	cmp	r2, r3
 80e0e6e:	bf04      	itt	eq
 80e0e70:	f503 7380 	addeq.w	r3, r3, #256	; 0x100
 80e0e74:	6063      	streq	r3, [r4, #4]
 80e0e76:	f894 3098 	ldrb.w	r3, [r4, #152]	; 0x98
 80e0e7a:	f003 02ff 	and.w	r2, r3, #255	; 0xff
 80e0e7e:	b923      	cbnz	r3, 80e0e8a <HAL_FDCAN_Init+0x3a>
 80e0e80:	4620      	mov	r0, r4
 80e0e82:	f884 2099 	strb.w	r2, [r4, #153]	; 0x99
 80e0e86:	f7ff fde9 	bl	80e0a5c <HAL_FDCAN_MspInit>
 80e0e8a:	6822      	ldr	r2, [r4, #0]
 80e0e8c:	6993      	ldr	r3, [r2, #24]
 80e0e8e:	f023 0310 	bic.w	r3, r3, #16
 80e0e92:	6193      	str	r3, [r2, #24]
 80e0e94:	f7ff ff40 	bl	80e0d18 <HAL_GetTick>
 80e0e98:	4605      	mov	r5, r0
 80e0e9a:	6823      	ldr	r3, [r4, #0]
 80e0e9c:	699a      	ldr	r2, [r3, #24]
 80e0e9e:	0711      	lsls	r1, r2, #28
 80e0ea0:	f100 8189 	bmi.w	80e11b6 <HAL_FDCAN_Init+0x366>
 80e0ea4:	699a      	ldr	r2, [r3, #24]
 80e0ea6:	f042 0201 	orr.w	r2, r2, #1
 80e0eaa:	619a      	str	r2, [r3, #24]
 80e0eac:	f7ff ff34 	bl	80e0d18 <HAL_GetTick>
 80e0eb0:	4605      	mov	r5, r0
 80e0eb2:	6823      	ldr	r3, [r4, #0]
 80e0eb4:	699a      	ldr	r2, [r3, #24]
 80e0eb6:	07d2      	lsls	r2, r2, #31
 80e0eb8:	f140 818e 	bpl.w	80e11d8 <HAL_FDCAN_Init+0x388>
 80e0ebc:	699a      	ldr	r2, [r3, #24]
 80e0ebe:	f042 0202 	orr.w	r2, r2, #2
 80e0ec2:	619a      	str	r2, [r3, #24]
 80e0ec4:	7c22      	ldrb	r2, [r4, #16]
 80e0ec6:	2a01      	cmp	r2, #1
 80e0ec8:	699a      	ldr	r2, [r3, #24]
 80e0eca:	bf0c      	ite	eq
 80e0ecc:	f022 0240 	biceq.w	r2, r2, #64	; 0x40
 80e0ed0:	f042 0240 	orrne.w	r2, r2, #64	; 0x40
 80e0ed4:	619a      	str	r2, [r3, #24]
 80e0ed6:	7c62      	ldrb	r2, [r4, #17]
 80e0ed8:	2a01      	cmp	r2, #1
 80e0eda:	699a      	ldr	r2, [r3, #24]
 80e0edc:	bf0c      	ite	eq
 80e0ede:	f442 4280 	orreq.w	r2, r2, #16384	; 0x4000
 80e0ee2:	f422 4280 	bicne.w	r2, r2, #16384	; 0x4000
 80e0ee6:	619a      	str	r2, [r3, #24]
 80e0ee8:	7ca2      	ldrb	r2, [r4, #18]
 80e0eea:	2a01      	cmp	r2, #1
 80e0eec:	699a      	ldr	r2, [r3, #24]
 80e0eee:	bf0c      	ite	eq
 80e0ef0:	f422 5280 	biceq.w	r2, r2, #4096	; 0x1000
 80e0ef4:	f442 5280 	orrne.w	r2, r2, #4096	; 0x1000
 80e0ef8:	619a      	str	r2, [r3, #24]
 80e0efa:	699a      	ldr	r2, [r3, #24]
 80e0efc:	68a0      	ldr	r0, [r4, #8]
 80e0efe:	f422 7240 	bic.w	r2, r2, #768	; 0x300
 80e0f02:	4302      	orrs	r2, r0
 80e0f04:	619a      	str	r2, [r3, #24]
 80e0f06:	699a      	ldr	r2, [r3, #24]
 80e0f08:	f022 02a4 	bic.w	r2, r2, #164	; 0xa4
 80e0f0c:	619a      	str	r2, [r3, #24]
 80e0f0e:	691a      	ldr	r2, [r3, #16]
 80e0f10:	f022 0210 	bic.w	r2, r2, #16
 80e0f14:	611a      	str	r2, [r3, #16]
 80e0f16:	68e2      	ldr	r2, [r4, #12]
 80e0f18:	2a01      	cmp	r2, #1
 80e0f1a:	f040 8164 	bne.w	80e11e6 <HAL_FDCAN_Init+0x396>
 80e0f1e:	699a      	ldr	r2, [r3, #24]
 80e0f20:	f042 0204 	orr.w	r2, r2, #4
 80e0f24:	619a      	str	r2, [r3, #24]
 80e0f26:	69a2      	ldr	r2, [r4, #24]
 80e0f28:	f5b0 7f40 	cmp.w	r0, #768	; 0x300
 80e0f2c:	f102 31ff 	add.w	r1, r2, #4294967295
 80e0f30:	69e2      	ldr	r2, [r4, #28]
 80e0f32:	f102 32ff 	add.w	r2, r2, #4294967295
 80e0f36:	ea4f 2202 	mov.w	r2, r2, lsl #8
 80e0f3a:	ea42 6241 	orr.w	r2, r2, r1, lsl #25
 80e0f3e:	6a21      	ldr	r1, [r4, #32]
 80e0f40:	f101 31ff 	add.w	r1, r1, #4294967295
 80e0f44:	ea42 0201 	orr.w	r2, r2, r1
 80e0f48:	6961      	ldr	r1, [r4, #20]
 80e0f4a:	f101 31ff 	add.w	r1, r1, #4294967295
 80e0f4e:	ea42 4201 	orr.w	r2, r2, r1, lsl #16
 80e0f52:	61da      	str	r2, [r3, #28]
 80e0f54:	d10e      	bne.n	80e0f74 <HAL_FDCAN_Init+0x124>
 80e0f56:	6ae2      	ldr	r2, [r4, #44]	; 0x2c
 80e0f58:	1e51      	subs	r1, r2, #1
 80e0f5a:	6b22      	ldr	r2, [r4, #48]	; 0x30
 80e0f5c:	3a01      	subs	r2, #1
 80e0f5e:	0112      	lsls	r2, r2, #4
 80e0f60:	ea42 2201 	orr.w	r2, r2, r1, lsl #8
 80e0f64:	6aa1      	ldr	r1, [r4, #40]	; 0x28
 80e0f66:	3901      	subs	r1, #1
 80e0f68:	430a      	orrs	r2, r1
 80e0f6a:	6a61      	ldr	r1, [r4, #36]	; 0x24
 80e0f6c:	3901      	subs	r1, #1
 80e0f6e:	ea42 4201 	orr.w	r2, r2, r1, lsl #16
 80e0f72:	60da      	str	r2, [r3, #12]
 80e0f74:	6e25      	ldr	r5, [r4, #96]	; 0x60
 80e0f76:	b12d      	cbz	r5, 80e0f84 <HAL_FDCAN_Init+0x134>
 80e0f78:	f8d3 20c0 	ldr.w	r2, [r3, #192]	; 0xc0
 80e0f7c:	6e61      	ldr	r1, [r4, #100]	; 0x64
 80e0f7e:	430a      	orrs	r2, r1
 80e0f80:	f8c3 20c0 	str.w	r2, [r3, #192]	; 0xc0
 80e0f84:	f8d4 a05c 	ldr.w	sl, [r4, #92]	; 0x5c
 80e0f88:	f8d4 b068 	ldr.w	fp, [r4, #104]	; 0x68
 80e0f8c:	eb15 0f0a 	cmn.w	r5, sl
 80e0f90:	d00b      	beq.n	80e0faa <HAL_FDCAN_Init+0x15a>
 80e0f92:	a918      	add	r1, sp, #96	; 0x60
 80e0f94:	f8d3 20c8 	ldr.w	r2, [r3, #200]	; 0xc8
 80e0f98:	eb01 018b 	add.w	r1, r1, fp, lsl #2
 80e0f9c:	f022 0207 	bic.w	r2, r2, #7
 80e0fa0:	f851 1c4c 	ldr.w	r1, [r1, #-76]
 80e0fa4:	430a      	orrs	r2, r1
 80e0fa6:	f8c3 20c8 	str.w	r2, [r3, #200]	; 0xc8
 80e0faa:	e9d4 7210 	ldrd	r7, r2, [r4, #64]	; 0x40
 80e0fae:	9203      	str	r2, [sp, #12]
 80e0fb0:	b167      	cbz	r7, 80e0fcc <HAL_FDCAN_Init+0x17c>
 80e0fb2:	a818      	add	r0, sp, #96	; 0x60
 80e0fb4:	9903      	ldr	r1, [sp, #12]
 80e0fb6:	f8d3 20bc 	ldr.w	r2, [r3, #188]	; 0xbc
 80e0fba:	eb00 0181 	add.w	r1, r0, r1, lsl #2
 80e0fbe:	f022 0207 	bic.w	r2, r2, #7
 80e0fc2:	f851 1c4c 	ldr.w	r1, [r1, #-76]
 80e0fc6:	430a      	orrs	r2, r1
 80e0fc8:	f8c3 20bc 	str.w	r2, [r3, #188]	; 0xbc
 80e0fcc:	e9d4 6c12 	ldrd	r6, ip, [r4, #72]	; 0x48
 80e0fd0:	b166      	cbz	r6, 80e0fec <HAL_FDCAN_Init+0x19c>
 80e0fd2:	a918      	add	r1, sp, #96	; 0x60
 80e0fd4:	f8d3 20bc 	ldr.w	r2, [r3, #188]	; 0xbc
 80e0fd8:	eb01 018c 	add.w	r1, r1, ip, lsl #2
 80e0fdc:	f022 0270 	bic.w	r2, r2, #112	; 0x70
 80e0fe0:	f851 1c4c 	ldr.w	r1, [r1, #-76]
 80e0fe4:	ea42 1201 	orr.w	r2, r2, r1, lsl #4
 80e0fe8:	f8c3 20bc 	str.w	r2, [r3, #188]	; 0xbc
 80e0fec:	6d22      	ldr	r2, [r4, #80]	; 0x50
 80e0fee:	f8d4 9054 	ldr.w	r9, [r4, #84]	; 0x54
 80e0ff2:	9202      	str	r2, [sp, #8]
 80e0ff4:	b162      	cbz	r2, 80e1010 <HAL_FDCAN_Init+0x1c0>
 80e0ff6:	a918      	add	r1, sp, #96	; 0x60
 80e0ff8:	f8d3 20bc 	ldr.w	r2, [r3, #188]	; 0xbc
 80e0ffc:	eb01 0189 	add.w	r1, r1, r9, lsl #2
 80e1000:	f422 62e0 	bic.w	r2, r2, #1792	; 0x700
 80e1004:	f851 1c4c 	ldr.w	r1, [r1, #-76]
 80e1008:	ea42 2201 	orr.w	r2, r2, r1, lsl #8
 80e100c:	f8c3 20bc 	str.w	r2, [r3, #188]	; 0xbc
 80e1010:	4a5b      	ldr	r2, [pc, #364]	; (80e1180 <HAL_FDCAN_Init+0x330>)
 80e1012:	4293      	cmp	r3, r2
 80e1014:	d104      	bne.n	80e1020 <HAL_FDCAN_Init+0x1d0>
 80e1016:	6861      	ldr	r1, [r4, #4]
 80e1018:	688a      	ldr	r2, [r1, #8]
 80e101a:	f022 0203 	bic.w	r2, r2, #3
 80e101e:	608a      	str	r2, [r1, #8]
 80e1020:	2200      	movs	r2, #0
 80e1022:	4858      	ldr	r0, [pc, #352]	; (80e1184 <HAL_FDCAN_Init+0x334>)
 80e1024:	f8d4 803c 	ldr.w	r8, [r4, #60]	; 0x3c
 80e1028:	f8c4 209c 	str.w	r2, [r4, #156]	; 0x9c
 80e102c:	f8c4 2094 	str.w	r2, [r4, #148]	; 0x94
 80e1030:	f04f 0201 	mov.w	r2, #1
 80e1034:	f884 2098 	strb.w	r2, [r4, #152]	; 0x98
 80e1038:	6b62      	ldr	r2, [r4, #52]	; 0x34
 80e103a:	9200      	str	r2, [sp, #0]
 80e103c:	f8d3 2084 	ldr.w	r2, [r3, #132]	; 0x84
 80e1040:	9900      	ldr	r1, [sp, #0]
 80e1042:	4002      	ands	r2, r0
 80e1044:	ea42 0281 	orr.w	r2, r2, r1, lsl #2
 80e1048:	f8c3 2084 	str.w	r2, [r3, #132]	; 0x84
 80e104c:	f8d3 1084 	ldr.w	r1, [r3, #132]	; 0x84
 80e1050:	6ba2      	ldr	r2, [r4, #56]	; 0x38
 80e1052:	f421 017f 	bic.w	r1, r1, #16711680	; 0xff0000
 80e1056:	9201      	str	r2, [sp, #4]
 80e1058:	ea41 4102 	orr.w	r1, r1, r2, lsl #16
 80e105c:	f8c3 1084 	str.w	r1, [r3, #132]	; 0x84
 80e1060:	9900      	ldr	r1, [sp, #0]
 80e1062:	eb01 0e02 	add.w	lr, r1, r2
 80e1066:	f8d3 1088 	ldr.w	r1, [r3, #136]	; 0x88
 80e106a:	9a03      	ldr	r2, [sp, #12]
 80e106c:	4001      	ands	r1, r0
 80e106e:	ea41 018e 	orr.w	r1, r1, lr, lsl #2
 80e1072:	f8c3 1088 	str.w	r1, [r3, #136]	; 0x88
 80e1076:	f8d3 1088 	ldr.w	r1, [r3, #136]	; 0x88
 80e107a:	f421 01fe 	bic.w	r1, r1, #8323072	; 0x7f0000
 80e107e:	ea41 4108 	orr.w	r1, r1, r8, lsl #16
 80e1082:	f8c3 1088 	str.w	r1, [r3, #136]	; 0x88
 80e1086:	eb0e 0148 	add.w	r1, lr, r8, lsl #1
 80e108a:	f8d3 e0a0 	ldr.w	lr, [r3, #160]	; 0xa0
 80e108e:	ea0e 0e00 	and.w	lr, lr, r0
 80e1092:	ea4e 0e81 	orr.w	lr, lr, r1, lsl #2
 80e1096:	f8c3 e0a0 	str.w	lr, [r3, #160]	; 0xa0
 80e109a:	f8d3 e0a0 	ldr.w	lr, [r3, #160]	; 0xa0
 80e109e:	f42e 0efe 	bic.w	lr, lr, #8323072	; 0x7f0000
 80e10a2:	ea4e 4e07 	orr.w	lr, lr, r7, lsl #16
 80e10a6:	4357      	muls	r7, r2
 80e10a8:	9a02      	ldr	r2, [sp, #8]
 80e10aa:	f8c3 e0a0 	str.w	lr, [r3, #160]	; 0xa0
 80e10ae:	4439      	add	r1, r7
 80e10b0:	f8d3 e0b0 	ldr.w	lr, [r3, #176]	; 0xb0
 80e10b4:	ea0e 0e00 	and.w	lr, lr, r0
 80e10b8:	ea4e 0e81 	orr.w	lr, lr, r1, lsl #2
 80e10bc:	f8c3 e0b0 	str.w	lr, [r3, #176]	; 0xb0
 80e10c0:	f8d3 e0b0 	ldr.w	lr, [r3, #176]	; 0xb0
 80e10c4:	f42e 0efe 	bic.w	lr, lr, #8323072	; 0x7f0000
 80e10c8:	ea4e 4e06 	orr.w	lr, lr, r6, lsl #16
 80e10cc:	fb0c f606 	mul.w	r6, ip, r6
 80e10d0:	fb09 fc02 	mul.w	ip, r9, r2
 80e10d4:	f8c3 e0b0 	str.w	lr, [r3, #176]	; 0xb0
 80e10d8:	4431      	add	r1, r6
 80e10da:	f8d3 e0ac 	ldr.w	lr, [r3, #172]	; 0xac
 80e10de:	ea0e 0e00 	and.w	lr, lr, r0
 80e10e2:	ea4e 0e81 	orr.w	lr, lr, r1, lsl #2
 80e10e6:	4461      	add	r1, ip
 80e10e8:	f8c3 e0ac 	str.w	lr, [r3, #172]	; 0xac
 80e10ec:	f8d3 e0f0 	ldr.w	lr, [r3, #240]	; 0xf0
 80e10f0:	ea0e 0e00 	and.w	lr, lr, r0
 80e10f4:	ea4e 0e81 	orr.w	lr, lr, r1, lsl #2
 80e10f8:	f8c3 e0f0 	str.w	lr, [r3, #240]	; 0xf0
 80e10fc:	f8d3 e0f0 	ldr.w	lr, [r3, #240]	; 0xf0
 80e1100:	f8d4 9058 	ldr.w	r9, [r4, #88]	; 0x58
 80e1104:	f42e 1e7c 	bic.w	lr, lr, #4128768	; 0x3f0000
 80e1108:	9a01      	ldr	r2, [sp, #4]
 80e110a:	eb01 0149 	add.w	r1, r1, r9, lsl #1
 80e110e:	ea4e 4e09 	orr.w	lr, lr, r9, lsl #16
 80e1112:	f8c3 e0f0 	str.w	lr, [r3, #240]	; 0xf0
 80e1116:	f8d3 e0c0 	ldr.w	lr, [r3, #192]	; 0xc0
 80e111a:	ea0e 0000 	and.w	r0, lr, r0
 80e111e:	ea40 0181 	orr.w	r1, r0, r1, lsl #2
 80e1122:	f8c3 10c0 	str.w	r1, [r3, #192]	; 0xc0
 80e1126:	f8d3 10c0 	ldr.w	r1, [r3, #192]	; 0xc0
 80e112a:	f421 117c 	bic.w	r1, r1, #4128768	; 0x3f0000
 80e112e:	ea41 410a 	orr.w	r1, r1, sl, lsl #16
 80e1132:	f8c3 10c0 	str.w	r1, [r3, #192]	; 0xc0
 80e1136:	f8d3 10c0 	ldr.w	r1, [r3, #192]	; 0xc0
 80e113a:	f021 517c 	bic.w	r1, r1, #1056964608	; 0x3f000000
 80e113e:	ea41 6105 	orr.w	r1, r1, r5, lsl #24
 80e1142:	fb0b f505 	mul.w	r5, fp, r5
 80e1146:	f8c3 10c0 	str.w	r1, [r3, #192]	; 0xc0
 80e114a:	9b00      	ldr	r3, [sp, #0]
 80e114c:	f103 5380 	add.w	r3, r3, #268435456	; 0x10000000
 80e1150:	f503 532c 	add.w	r3, r3, #11008	; 0x2b00
 80e1154:	009b      	lsls	r3, r3, #2
 80e1156:	eb03 0282 	add.w	r2, r3, r2, lsl #2
 80e115a:	66e3      	str	r3, [r4, #108]	; 0x6c
 80e115c:	6722      	str	r2, [r4, #112]	; 0x70
 80e115e:	eb02 02c8 	add.w	r2, r2, r8, lsl #3
 80e1162:	eb02 0787 	add.w	r7, r2, r7, lsl #2
 80e1166:	6762      	str	r2, [r4, #116]	; 0x74
 80e1168:	4a07      	ldr	r2, [pc, #28]	; (80e1188 <HAL_FDCAN_Init+0x338>)
 80e116a:	eb07 0686 	add.w	r6, r7, r6, lsl #2
 80e116e:	67a7      	str	r7, [r4, #120]	; 0x78
 80e1170:	67e6      	str	r6, [r4, #124]	; 0x7c
 80e1172:	eb06 068c 	add.w	r6, r6, ip, lsl #2
 80e1176:	f8c4 6080 	str.w	r6, [r4, #128]	; 0x80
 80e117a:	e007      	b.n	80e118c <HAL_FDCAN_Init+0x33c>
 80e117c:	080e309c 	.word	0x080e309c
 80e1180:	4000a000 	.word	0x4000a000
 80e1184:	ffff0003 	.word	0xffff0003
 80e1188:	4000d3fc 	.word	0x4000d3fc
 80e118c:	eb06 06c9 	add.w	r6, r6, r9, lsl #3
 80e1190:	fb0b f90a 	mul.w	r9, fp, sl
 80e1194:	f8c4 6084 	str.w	r6, [r4, #132]	; 0x84
 80e1198:	eb06 0689 	add.w	r6, r6, r9, lsl #2
 80e119c:	eb06 0585 	add.w	r5, r6, r5, lsl #2
 80e11a0:	f8c4 6088 	str.w	r6, [r4, #136]	; 0x88
 80e11a4:	4295      	cmp	r5, r2
 80e11a6:	f8c4 5090 	str.w	r5, [r4, #144]	; 0x90
 80e11aa:	d933      	bls.n	80e1214 <HAL_FDCAN_Init+0x3c4>
 80e11ac:	f8d4 309c 	ldr.w	r3, [r4, #156]	; 0x9c
 80e11b0:	f043 0320 	orr.w	r3, r3, #32
 80e11b4:	e009      	b.n	80e11ca <HAL_FDCAN_Init+0x37a>
 80e11b6:	f7ff fdaf 	bl	80e0d18 <HAL_GetTick>
 80e11ba:	1b40      	subs	r0, r0, r5
 80e11bc:	280a      	cmp	r0, #10
 80e11be:	f67f ae6c 	bls.w	80e0e9a <HAL_FDCAN_Init+0x4a>
 80e11c2:	f8d4 309c 	ldr.w	r3, [r4, #156]	; 0x9c
 80e11c6:	f043 0301 	orr.w	r3, r3, #1
 80e11ca:	f8c4 309c 	str.w	r3, [r4, #156]	; 0x9c
 80e11ce:	2303      	movs	r3, #3
 80e11d0:	f884 3098 	strb.w	r3, [r4, #152]	; 0x98
 80e11d4:	2001      	movs	r0, #1
 80e11d6:	e022      	b.n	80e121e <HAL_FDCAN_Init+0x3ce>
 80e11d8:	f7ff fd9e 	bl	80e0d18 <HAL_GetTick>
 80e11dc:	1b40      	subs	r0, r0, r5
 80e11de:	280a      	cmp	r0, #10
 80e11e0:	f67f ae67 	bls.w	80e0eb2 <HAL_FDCAN_Init+0x62>
 80e11e4:	e7ed      	b.n	80e11c2 <HAL_FDCAN_Init+0x372>
 80e11e6:	2a00      	cmp	r2, #0
 80e11e8:	f43f ae9d 	beq.w	80e0f26 <HAL_FDCAN_Init+0xd6>
 80e11ec:	2a02      	cmp	r2, #2
 80e11ee:	d00a      	beq.n	80e1206 <HAL_FDCAN_Init+0x3b6>
 80e11f0:	6999      	ldr	r1, [r3, #24]
 80e11f2:	2a03      	cmp	r2, #3
 80e11f4:	f041 0180 	orr.w	r1, r1, #128	; 0x80
 80e11f8:	6199      	str	r1, [r3, #24]
 80e11fa:	6919      	ldr	r1, [r3, #16]
 80e11fc:	f041 0110 	orr.w	r1, r1, #16
 80e1200:	6119      	str	r1, [r3, #16]
 80e1202:	f47f ae90 	bne.w	80e0f26 <HAL_FDCAN_Init+0xd6>
 80e1206:	699a      	ldr	r2, [r3, #24]
 80e1208:	f042 0220 	orr.w	r2, r2, #32
 80e120c:	e68a      	b.n	80e0f24 <HAL_FDCAN_Init+0xd4>
 80e120e:	2200      	movs	r2, #0
 80e1210:	f843 2b04 	str.w	r2, [r3], #4
 80e1214:	f8d4 2090 	ldr.w	r2, [r4, #144]	; 0x90
 80e1218:	4293      	cmp	r3, r2
 80e121a:	d3f8      	bcc.n	80e120e <HAL_FDCAN_Init+0x3be>
 80e121c:	2000      	movs	r0, #0
 80e121e:	b019      	add	sp, #100	; 0x64
 80e1220:	e8bd 8ff0 	ldmia.w	sp!, {r4, r5, r6, r7, r8, r9, sl, fp, pc}

080e1224 <HAL_FDCAN_Start>:
 80e1224:	f890 3098 	ldrb.w	r3, [r0, #152]	; 0x98
 80e1228:	2b01      	cmp	r3, #1
 80e122a:	d10c      	bne.n	80e1246 <HAL_FDCAN_Start+0x22>
 80e122c:	6802      	ldr	r2, [r0, #0]
 80e122e:	2302      	movs	r3, #2
 80e1230:	f880 3098 	strb.w	r3, [r0, #152]	; 0x98
 80e1234:	6993      	ldr	r3, [r2, #24]
 80e1236:	f023 0301 	bic.w	r3, r3, #1
 80e123a:	6193      	str	r3, [r2, #24]
 80e123c:	2300      	movs	r3, #0
 80e123e:	f8c0 309c 	str.w	r3, [r0, #156]	; 0x9c
 80e1242:	4618      	mov	r0, r3
 80e1244:	4770      	bx	lr
 80e1246:	f8d0 309c 	ldr.w	r3, [r0, #156]	; 0x9c
 80e124a:	f043 0304 	orr.w	r3, r3, #4
 80e124e:	f8c0 309c 	str.w	r3, [r0, #156]	; 0x9c
 80e1252:	2001      	movs	r0, #1
 80e1254:	4770      	bx	lr

080e1256 <HAL_FDCAN_AddMessageToTxFifoQ>:
 80e1256:	b570      	push	{r4, r5, r6, lr}
 80e1258:	f890 3098 	ldrb.w	r3, [r0, #152]	; 0x98
 80e125c:	4604      	mov	r4, r0
 80e125e:	2b02      	cmp	r3, #2
 80e1260:	d127      	bne.n	80e12b2 <HAL_FDCAN_AddMessageToTxFifoQ+0x5c>
 80e1262:	6806      	ldr	r6, [r0, #0]
 80e1264:	f8d6 30c0 	ldr.w	r3, [r6, #192]	; 0xc0
 80e1268:	f013 5f7c 	tst.w	r3, #1056964608	; 0x3f000000
 80e126c:	d107      	bne.n	80e127e <HAL_FDCAN_AddMessageToTxFifoQ+0x28>
 80e126e:	f8d0 309c 	ldr.w	r3, [r0, #156]	; 0x9c
 80e1272:	f043 0320 	orr.w	r3, r3, #32
 80e1276:	2001      	movs	r0, #1
 80e1278:	f8c4 309c 	str.w	r3, [r4, #156]	; 0x9c
 80e127c:	e018      	b.n	80e12b0 <HAL_FDCAN_AddMessageToTxFifoQ+0x5a>
 80e127e:	f8d6 50c4 	ldr.w	r5, [r6, #196]	; 0xc4
 80e1282:	f415 1500 	ands.w	r5, r5, #2097152	; 0x200000
 80e1286:	d004      	beq.n	80e1292 <HAL_FDCAN_AddMessageToTxFifoQ+0x3c>
 80e1288:	f8d0 309c 	ldr.w	r3, [r0, #156]	; 0x9c
 80e128c:	f443 7300 	orr.w	r3, r3, #512	; 0x200
 80e1290:	e7f1      	b.n	80e1276 <HAL_FDCAN_AddMessageToTxFifoQ+0x20>
 80e1292:	f8d6 60c4 	ldr.w	r6, [r6, #196]	; 0xc4
 80e1296:	f3c6 4604 	ubfx	r6, r6, #16, #5
 80e129a:	4633      	mov	r3, r6
 80e129c:	f7ff fd9a 	bl	80e0dd4 <FDCAN_CopyMessageToRAM>
 80e12a0:	2201      	movs	r2, #1
 80e12a2:	6821      	ldr	r1, [r4, #0]
 80e12a4:	4628      	mov	r0, r5
 80e12a6:	40b2      	lsls	r2, r6
 80e12a8:	f8c1 20d0 	str.w	r2, [r1, #208]	; 0xd0
 80e12ac:	f8c4 2094 	str.w	r2, [r4, #148]	; 0x94
 80e12b0:	bd70      	pop	{r4, r5, r6, pc}
 80e12b2:	f8d0 309c 	ldr.w	r3, [r0, #156]	; 0x9c
 80e12b6:	f043 0308 	orr.w	r3, r3, #8
 80e12ba:	e7dc      	b.n	80e1276 <HAL_FDCAN_AddMessageToTxFifoQ+0x20>

080e12bc <HAL_FDCAN_GetRxMessage>:
 80e12bc:	b5f0      	push	{r4, r5, r6, r7, lr}
 80e12be:	f890 4098 	ldrb.w	r4, [r0, #152]	; 0x98
 80e12c2:	2c02      	cmp	r4, #2
 80e12c4:	f040 80a8 	bne.w	80e1418 <HAL_FDCAN_GetRxMessage+0x15c>
 80e12c8:	2940      	cmp	r1, #64	; 0x40
 80e12ca:	d164      	bne.n	80e1396 <HAL_FDCAN_GetRxMessage+0xda>
 80e12cc:	6804      	ldr	r4, [r0, #0]
 80e12ce:	f8d4 50a0 	ldr.w	r5, [r4, #160]	; 0xa0
 80e12d2:	f415 0ffe 	tst.w	r5, #8323072	; 0x7f0000
 80e12d6:	d104      	bne.n	80e12e2 <HAL_FDCAN_GetRxMessage+0x26>
 80e12d8:	f8d0 309c 	ldr.w	r3, [r0, #156]	; 0x9c
 80e12dc:	f043 0320 	orr.w	r3, r3, #32
 80e12e0:	e007      	b.n	80e12f2 <HAL_FDCAN_GetRxMessage+0x36>
 80e12e2:	f8d4 50a4 	ldr.w	r5, [r4, #164]	; 0xa4
 80e12e6:	066d      	lsls	r5, r5, #25
 80e12e8:	d107      	bne.n	80e12fa <HAL_FDCAN_GetRxMessage+0x3e>
 80e12ea:	f8d0 309c 	ldr.w	r3, [r0, #156]	; 0x9c
 80e12ee:	f443 7380 	orr.w	r3, r3, #256	; 0x100
 80e12f2:	f8c0 309c 	str.w	r3, [r0, #156]	; 0x9c
 80e12f6:	2001      	movs	r0, #1
 80e12f8:	e04c      	b.n	80e1394 <HAL_FDCAN_GetRxMessage+0xd8>
 80e12fa:	f8d4 50a4 	ldr.w	r5, [r4, #164]	; 0xa4
 80e12fe:	01ef      	lsls	r7, r5, #7
 80e1300:	d501      	bpl.n	80e1306 <HAL_FDCAN_GetRxMessage+0x4a>
 80e1302:	f8d4 50a0 	ldr.w	r5, [r4, #160]	; 0xa0
 80e1306:	f8d4 50a4 	ldr.w	r5, [r4, #164]	; 0xa4
 80e130a:	6c44      	ldr	r4, [r0, #68]	; 0x44
 80e130c:	f3c5 2505 	ubfx	r5, r5, #8, #6
 80e1310:	6f46      	ldr	r6, [r0, #116]	; 0x74
 80e1312:	436c      	muls	r4, r5
 80e1314:	eb06 0484 	add.w	r4, r6, r4, lsl #2
 80e1318:	6827      	ldr	r7, [r4, #0]
 80e131a:	f007 4780 	and.w	r7, r7, #1073741824	; 0x40000000
 80e131e:	6057      	str	r7, [r2, #4]
 80e1320:	6826      	ldr	r6, [r4, #0]
 80e1322:	2f00      	cmp	r7, #0
 80e1324:	d15b      	bne.n	80e13de <HAL_FDCAN_GetRxMessage+0x122>
 80e1326:	f3c6 468a 	ubfx	r6, r6, #18, #11
 80e132a:	6016      	str	r6, [r2, #0]
 80e132c:	3408      	adds	r4, #8
 80e132e:	f854 6c08 	ldr.w	r6, [r4, #-8]
 80e1332:	f8df c0f0 	ldr.w	ip, [pc, #240]	; 80e1424 <HAL_FDCAN_GetRxMessage+0x168>
 80e1336:	f006 5600 	and.w	r6, r6, #536870912	; 0x20000000
 80e133a:	6096      	str	r6, [r2, #8]
 80e133c:	f854 6c08 	ldr.w	r6, [r4, #-8]
 80e1340:	f006 4600 	and.w	r6, r6, #2147483648	; 0x80000000
 80e1344:	6116      	str	r6, [r2, #16]
 80e1346:	f834 6c04 	ldrh.w	r6, [r4, #-4]
 80e134a:	61d6      	str	r6, [r2, #28]
 80e134c:	f854 6c04 	ldr.w	r6, [r4, #-4]
 80e1350:	f406 2670 	and.w	r6, r6, #983040	; 0xf0000
 80e1354:	60d6      	str	r6, [r2, #12]
 80e1356:	f854 6c04 	ldr.w	r6, [r4, #-4]
 80e135a:	f406 1680 	and.w	r6, r6, #1048576	; 0x100000
 80e135e:	6156      	str	r6, [r2, #20]
 80e1360:	f854 6c04 	ldr.w	r6, [r4, #-4]
 80e1364:	f406 1600 	and.w	r6, r6, #2097152	; 0x200000
 80e1368:	6196      	str	r6, [r2, #24]
 80e136a:	f814 6c01 	ldrb.w	r6, [r4, #-1]
 80e136e:	f006 067f 	and.w	r6, r6, #127	; 0x7f
 80e1372:	6216      	str	r6, [r2, #32]
 80e1374:	f854 6c04 	ldr.w	r6, [r4, #-4]
 80e1378:	0ff6      	lsrs	r6, r6, #31
 80e137a:	6256      	str	r6, [r2, #36]	; 0x24
 80e137c:	2600      	movs	r6, #0
 80e137e:	89d7      	ldrh	r7, [r2, #14]
 80e1380:	f81c 7007 	ldrb.w	r7, [ip, r7]
 80e1384:	42b7      	cmp	r7, r6
 80e1386:	d82d      	bhi.n	80e13e4 <HAL_FDCAN_GetRxMessage+0x128>
 80e1388:	2940      	cmp	r1, #64	; 0x40
 80e138a:	6802      	ldr	r2, [r0, #0]
 80e138c:	d12f      	bne.n	80e13ee <HAL_FDCAN_GetRxMessage+0x132>
 80e138e:	f8c2 50a8 	str.w	r5, [r2, #168]	; 0xa8
 80e1392:	2000      	movs	r0, #0
 80e1394:	bdf0      	pop	{r4, r5, r6, r7, pc}
 80e1396:	2941      	cmp	r1, #65	; 0x41
 80e1398:	d117      	bne.n	80e13ca <HAL_FDCAN_GetRxMessage+0x10e>
 80e139a:	6804      	ldr	r4, [r0, #0]
 80e139c:	f8d4 50b0 	ldr.w	r5, [r4, #176]	; 0xb0
 80e13a0:	f415 0ffe 	tst.w	r5, #8323072	; 0x7f0000
 80e13a4:	d098      	beq.n	80e12d8 <HAL_FDCAN_GetRxMessage+0x1c>
 80e13a6:	f8d4 50b4 	ldr.w	r5, [r4, #180]	; 0xb4
 80e13aa:	066e      	lsls	r6, r5, #25
 80e13ac:	d09d      	beq.n	80e12ea <HAL_FDCAN_GetRxMessage+0x2e>
 80e13ae:	f8d4 50b4 	ldr.w	r5, [r4, #180]	; 0xb4
 80e13b2:	01ed      	lsls	r5, r5, #7
 80e13b4:	d501      	bpl.n	80e13ba <HAL_FDCAN_GetRxMessage+0xfe>
 80e13b6:	f8d4 50b0 	ldr.w	r5, [r4, #176]	; 0xb0
 80e13ba:	f8d4 50b4 	ldr.w	r5, [r4, #180]	; 0xb4
 80e13be:	6cc4      	ldr	r4, [r0, #76]	; 0x4c
 80e13c0:	f3c5 2505 	ubfx	r5, r5, #8, #6
 80e13c4:	6f86      	ldr	r6, [r0, #120]	; 0x78
 80e13c6:	436c      	muls	r4, r5
 80e13c8:	e7a4      	b.n	80e1314 <HAL_FDCAN_GetRxMessage+0x58>
 80e13ca:	6d04      	ldr	r4, [r0, #80]	; 0x50
 80e13cc:	428c      	cmp	r4, r1
 80e13ce:	d983      	bls.n	80e12d8 <HAL_FDCAN_GetRxMessage+0x1c>
 80e13d0:	6d44      	ldr	r4, [r0, #84]	; 0x54
 80e13d2:	6fc5      	ldr	r5, [r0, #124]	; 0x7c
 80e13d4:	434c      	muls	r4, r1
 80e13d6:	eb05 0484 	add.w	r4, r5, r4, lsl #2
 80e13da:	2500      	movs	r5, #0
 80e13dc:	e79c      	b.n	80e1318 <HAL_FDCAN_GetRxMessage+0x5c>
 80e13de:	f026 4660 	bic.w	r6, r6, #3758096384	; 0xe0000000
 80e13e2:	e7a2      	b.n	80e132a <HAL_FDCAN_GetRxMessage+0x6e>
 80e13e4:	f814 7b01 	ldrb.w	r7, [r4], #1
 80e13e8:	559f      	strb	r7, [r3, r6]
 80e13ea:	3601      	adds	r6, #1
 80e13ec:	e7c7      	b.n	80e137e <HAL_FDCAN_GetRxMessage+0xc2>
 80e13ee:	2941      	cmp	r1, #65	; 0x41
 80e13f0:	d102      	bne.n	80e13f8 <HAL_FDCAN_GetRxMessage+0x13c>
 80e13f2:	f8c2 50b8 	str.w	r5, [r2, #184]	; 0xb8
 80e13f6:	e7cc      	b.n	80e1392 <HAL_FDCAN_GetRxMessage+0xd6>
 80e13f8:	291f      	cmp	r1, #31
 80e13fa:	f04f 0301 	mov.w	r3, #1
 80e13fe:	d804      	bhi.n	80e140a <HAL_FDCAN_GetRxMessage+0x14e>
 80e1400:	fa03 f101 	lsl.w	r1, r3, r1
 80e1404:	f8c2 1098 	str.w	r1, [r2, #152]	; 0x98
 80e1408:	e7c3      	b.n	80e1392 <HAL_FDCAN_GetRxMessage+0xd6>
 80e140a:	f001 011f 	and.w	r1, r1, #31
 80e140e:	fa03 f101 	lsl.w	r1, r3, r1
 80e1412:	f8c2 109c 	str.w	r1, [r2, #156]	; 0x9c
 80e1416:	e7bc      	b.n	80e1392 <HAL_FDCAN_GetRxMessage+0xd6>
 80e1418:	f8d0 309c 	ldr.w	r3, [r0, #156]	; 0x9c
 80e141c:	f043 0308 	orr.w	r3, r3, #8
 80e1420:	e767      	b.n	80e12f2 <HAL_FDCAN_GetRxMessage+0x36>
 80e1422:	bf00      	nop
 80e1424:	080e30f8 	.word	0x080e30f8

080e1428 <HAL_FDCAN_ActivateNotification>:
 80e1428:	f890 3098 	ldrb.w	r3, [r0, #152]	; 0x98
 80e142c:	3b01      	subs	r3, #1
 80e142e:	2b01      	cmp	r3, #1
 80e1430:	d82d      	bhi.n	80e148e <HAL_FDCAN_ActivateNotification+0x66>
 80e1432:	6803      	ldr	r3, [r0, #0]
 80e1434:	6d98      	ldr	r0, [r3, #88]	; 0x58
 80e1436:	4208      	tst	r0, r1
 80e1438:	d11f      	bne.n	80e147a <HAL_FDCAN_ActivateNotification+0x52>
 80e143a:	6dd8      	ldr	r0, [r3, #92]	; 0x5c
 80e143c:	f040 0001 	orr.w	r0, r0, #1
 80e1440:	65d8      	str	r0, [r3, #92]	; 0x5c
 80e1442:	0588      	lsls	r0, r1, #22
 80e1444:	d504      	bpl.n	80e1450 <HAL_FDCAN_ActivateNotification+0x28>
 80e1446:	f8d3 00e0 	ldr.w	r0, [r3, #224]	; 0xe0
 80e144a:	4310      	orrs	r0, r2
 80e144c:	f8c3 00e0 	str.w	r0, [r3, #224]	; 0xe0
 80e1450:	0548      	lsls	r0, r1, #21
 80e1452:	d504      	bpl.n	80e145e <HAL_FDCAN_ActivateNotification+0x36>
 80e1454:	f8d3 00e4 	ldr.w	r0, [r3, #228]	; 0xe4
 80e1458:	4302      	orrs	r2, r0
 80e145a:	f8c3 20e4 	str.w	r2, [r3, #228]	; 0xe4
 80e145e:	f021 4240 	bic.w	r2, r1, #3221225472	; 0xc0000000
 80e1462:	6d58      	ldr	r0, [r3, #84]	; 0x54
 80e1464:	f422 1240 	bic.w	r2, r2, #3145728	; 0x300000
 80e1468:	4302      	orrs	r2, r0
 80e146a:	2000      	movs	r0, #0
 80e146c:	655a      	str	r2, [r3, #84]	; 0x54
 80e146e:	4a0c      	ldr	r2, [pc, #48]	; (80e14a0 <HAL_FDCAN_ActivateNotification+0x78>)
 80e1470:	6953      	ldr	r3, [r2, #20]
 80e1472:	ea43 7191 	orr.w	r1, r3, r1, lsr #30
 80e1476:	6151      	str	r1, [r2, #20]
 80e1478:	4770      	bx	lr
 80e147a:	6d98      	ldr	r0, [r3, #88]	; 0x58
 80e147c:	ea31 0000 	bics.w	r0, r1, r0
 80e1480:	d103      	bne.n	80e148a <HAL_FDCAN_ActivateNotification+0x62>
 80e1482:	6dd8      	ldr	r0, [r3, #92]	; 0x5c
 80e1484:	f040 0002 	orr.w	r0, r0, #2
 80e1488:	e7da      	b.n	80e1440 <HAL_FDCAN_ActivateNotification+0x18>
 80e148a:	2003      	movs	r0, #3
 80e148c:	e7d8      	b.n	80e1440 <HAL_FDCAN_ActivateNotification+0x18>
 80e148e:	f8d0 309c 	ldr.w	r3, [r0, #156]	; 0x9c
 80e1492:	f043 0302 	orr.w	r3, r3, #2
 80e1496:	f8c0 309c 	str.w	r3, [r0, #156]	; 0x9c
 80e149a:	2001      	movs	r0, #1
 80e149c:	4770      	bx	lr
 80e149e:	bf00      	nop
 80e14a0:	4000a800 	.word	0x4000a800

080e14a4 <HAL_FLASH_Unlock>:
 80e14a4:	4b06      	ldr	r3, [pc, #24]	; (80e14c0 <HAL_FLASH_Unlock+0x1c>)
 80e14a6:	68d8      	ldr	r0, [r3, #12]
 80e14a8:	f010 0001 	ands.w	r0, r0, #1
 80e14ac:	d007      	beq.n	80e14be <HAL_FLASH_Unlock+0x1a>
 80e14ae:	4a05      	ldr	r2, [pc, #20]	; (80e14c4 <HAL_FLASH_Unlock+0x20>)
 80e14b0:	605a      	str	r2, [r3, #4]
 80e14b2:	f102 3288 	add.w	r2, r2, #2290649224	; 0x88888888
 80e14b6:	605a      	str	r2, [r3, #4]
 80e14b8:	68d8      	ldr	r0, [r3, #12]
 80e14ba:	f000 0001 	and.w	r0, r0, #1
 80e14be:	4770      	bx	lr
 80e14c0:	52002000 	.word	0x52002000
 80e14c4:	45670123 	.word	0x45670123

080e14c8 <HAL_FLASH_Lock>:
 80e14c8:	4b04      	ldr	r3, [pc, #16]	; (80e14dc <HAL_FLASH_Lock+0x14>)
 80e14ca:	68da      	ldr	r2, [r3, #12]
 80e14cc:	f042 0201 	orr.w	r2, r2, #1
 80e14d0:	60da      	str	r2, [r3, #12]
 80e14d2:	68d8      	ldr	r0, [r3, #12]
 80e14d4:	43c0      	mvns	r0, r0
 80e14d6:	f000 0001 	and.w	r0, r0, #1
 80e14da:	4770      	bx	lr
 80e14dc:	52002000 	.word	0x52002000

080e14e0 <FLASH_WaitForLastOperation>:
 80e14e0:	b5f8      	push	{r3, r4, r5, r6, r7, lr}
 80e14e2:	4605      	mov	r5, r0
 80e14e4:	460e      	mov	r6, r1
 80e14e6:	4c15      	ldr	r4, [pc, #84]	; (80e153c <FLASH_WaitForLastOperation+0x5c>)
 80e14e8:	f7ff fc16 	bl	80e0d18 <HAL_GetTick>
 80e14ec:	4607      	mov	r7, r0
 80e14ee:	6923      	ldr	r3, [r4, #16]
 80e14f0:	f013 0304 	ands.w	r3, r3, #4
 80e14f4:	d10c      	bne.n	80e1510 <FLASH_WaitForLastOperation+0x30>
 80e14f6:	2e01      	cmp	r6, #1
 80e14f8:	d11e      	bne.n	80e1538 <FLASH_WaitForLastOperation+0x58>
 80e14fa:	6922      	ldr	r2, [r4, #16]
 80e14fc:	4810      	ldr	r0, [pc, #64]	; (80e1540 <FLASH_WaitForLastOperation+0x60>)
 80e14fe:	4002      	ands	r2, r0
 80e1500:	d011      	beq.n	80e1526 <FLASH_WaitForLastOperation+0x46>
 80e1502:	4910      	ldr	r1, [pc, #64]	; (80e1544 <FLASH_WaitForLastOperation+0x64>)
 80e1504:	4630      	mov	r0, r6
 80e1506:	698b      	ldr	r3, [r1, #24]
 80e1508:	4313      	orrs	r3, r2
 80e150a:	618b      	str	r3, [r1, #24]
 80e150c:	6162      	str	r2, [r4, #20]
 80e150e:	bdf8      	pop	{r3, r4, r5, r6, r7, pc}
 80e1510:	1c6b      	adds	r3, r5, #1
 80e1512:	d0ec      	beq.n	80e14ee <FLASH_WaitForLastOperation+0xe>
 80e1514:	f7ff fc00 	bl	80e0d18 <HAL_GetTick>
 80e1518:	1bc0      	subs	r0, r0, r7
 80e151a:	42a8      	cmp	r0, r5
 80e151c:	d801      	bhi.n	80e1522 <FLASH_WaitForLastOperation+0x42>
 80e151e:	2d00      	cmp	r5, #0
 80e1520:	d1e5      	bne.n	80e14ee <FLASH_WaitForLastOperation+0xe>
 80e1522:	2003      	movs	r0, #3
 80e1524:	e7f3      	b.n	80e150e <FLASH_WaitForLastOperation+0x2e>
 80e1526:	6920      	ldr	r0, [r4, #16]
 80e1528:	f410 3080 	ands.w	r0, r0, #65536	; 0x10000
 80e152c:	d0ef      	beq.n	80e150e <FLASH_WaitForLastOperation+0x2e>
 80e152e:	f44f 3380 	mov.w	r3, #65536	; 0x10000
 80e1532:	4610      	mov	r0, r2
 80e1534:	6163      	str	r3, [r4, #20]
 80e1536:	e7ea      	b.n	80e150e <FLASH_WaitForLastOperation+0x2e>
 80e1538:	4618      	mov	r0, r3
 80e153a:	e7e8      	b.n	80e150e <FLASH_WaitForLastOperation+0x2e>
 80e153c:	52002000 	.word	0x52002000
 80e1540:	17ee0000 	.word	0x17ee0000
 80e1544:	2400017c 	.word	0x2400017c

080e1548 <HAL_FLASH_Program>:
 80e1548:	b570      	push	{r4, r5, r6, lr}
 80e154a:	4c1b      	ldr	r4, [pc, #108]	; (80e15b8 <HAL_FLASH_Program+0x70>)
 80e154c:	460d      	mov	r5, r1
 80e154e:	4616      	mov	r6, r2
 80e1550:	7d23      	ldrb	r3, [r4, #20]
 80e1552:	2b01      	cmp	r3, #1
 80e1554:	d02c      	beq.n	80e15b0 <HAL_FLASH_Program+0x68>
 80e1556:	f105 4378 	add.w	r3, r5, #4160749568	; 0xf8000000
 80e155a:	2101      	movs	r1, #1
 80e155c:	f5b3 1f80 	cmp.w	r3, #1048576	; 0x100000
 80e1560:	7521      	strb	r1, [r4, #20]
 80e1562:	d227      	bcs.n	80e15b4 <HAL_FLASH_Program+0x6c>
 80e1564:	2300      	movs	r3, #0
 80e1566:	f24c 3050 	movw	r0, #50000	; 0xc350
 80e156a:	61a3      	str	r3, [r4, #24]
 80e156c:	f7ff ffb8 	bl	80e14e0 <FLASH_WaitForLastOperation>
 80e1570:	b9d8      	cbnz	r0, 80e15aa <HAL_FLASH_Program+0x62>
 80e1572:	4a12      	ldr	r2, [pc, #72]	; (80e15bc <HAL_FLASH_Program+0x74>)
 80e1574:	68d3      	ldr	r3, [r2, #12]
 80e1576:	f043 0302 	orr.w	r3, r3, #2
 80e157a:	60d3      	str	r3, [r2, #12]
 80e157c:	f3bf 8f6f 	isb	sy
 80e1580:	f3bf 8f4f 	dsb	sy
 80e1584:	5833      	ldr	r3, [r6, r0]
 80e1586:	502b      	str	r3, [r5, r0]
 80e1588:	3004      	adds	r0, #4
 80e158a:	2820      	cmp	r0, #32
 80e158c:	d1fa      	bne.n	80e1584 <HAL_FLASH_Program+0x3c>
 80e158e:	f3bf 8f6f 	isb	sy
 80e1592:	f3bf 8f4f 	dsb	sy
 80e1596:	2101      	movs	r1, #1
 80e1598:	f24c 3050 	movw	r0, #50000	; 0xc350
 80e159c:	f7ff ffa0 	bl	80e14e0 <FLASH_WaitForLastOperation>
 80e15a0:	4a06      	ldr	r2, [pc, #24]	; (80e15bc <HAL_FLASH_Program+0x74>)
 80e15a2:	68d3      	ldr	r3, [r2, #12]
 80e15a4:	f023 0302 	bic.w	r3, r3, #2
 80e15a8:	60d3      	str	r3, [r2, #12]
 80e15aa:	2300      	movs	r3, #0
 80e15ac:	7523      	strb	r3, [r4, #20]
 80e15ae:	bd70      	pop	{r4, r5, r6, pc}
 80e15b0:	2002      	movs	r0, #2
 80e15b2:	e7fc      	b.n	80e15ae <HAL_FLASH_Program+0x66>
 80e15b4:	4608      	mov	r0, r1
 80e15b6:	e7fa      	b.n	80e15ae <HAL_FLASH_Program+0x66>
 80e15b8:	2400017c 	.word	0x2400017c
 80e15bc:	52002000 	.word	0x52002000

080e15c0 <FLASH_MassErase>:
 80e15c0:	07cb      	lsls	r3, r1, #31
 80e15c2:	d50b      	bpl.n	80e15dc <FLASH_MassErase+0x1c>
 80e15c4:	4b06      	ldr	r3, [pc, #24]	; (80e15e0 <FLASH_MassErase+0x20>)
 80e15c6:	68da      	ldr	r2, [r3, #12]
 80e15c8:	f022 0230 	bic.w	r2, r2, #48	; 0x30
 80e15cc:	60da      	str	r2, [r3, #12]
 80e15ce:	68da      	ldr	r2, [r3, #12]
 80e15d0:	4310      	orrs	r0, r2
 80e15d2:	60d8      	str	r0, [r3, #12]
 80e15d4:	68da      	ldr	r2, [r3, #12]
 80e15d6:	f042 0288 	orr.w	r2, r2, #136	; 0x88
 80e15da:	60da      	str	r2, [r3, #12]
 80e15dc:	4770      	bx	lr
 80e15de:	bf00      	nop
 80e15e0:	52002000 	.word	0x52002000

080e15e4 <FLASH_Erase_Sector>:
 80e15e4:	07cb      	lsls	r3, r1, #31
 80e15e6:	d50b      	bpl.n	80e1600 <FLASH_Erase_Sector+0x1c>
 80e15e8:	4906      	ldr	r1, [pc, #24]	; (80e1604 <FLASH_Erase_Sector+0x20>)
 80e15ea:	68cb      	ldr	r3, [r1, #12]
 80e15ec:	f423 63e6 	bic.w	r3, r3, #1840	; 0x730
 80e15f0:	60cb      	str	r3, [r1, #12]
 80e15f2:	68cb      	ldr	r3, [r1, #12]
 80e15f4:	ea43 2000 	orr.w	r0, r3, r0, lsl #8
 80e15f8:	4302      	orrs	r2, r0
 80e15fa:	f042 0284 	orr.w	r2, r2, #132	; 0x84
 80e15fe:	60ca      	str	r2, [r1, #12]
 80e1600:	4770      	bx	lr
 80e1602:	bf00      	nop
 80e1604:	52002000 	.word	0x52002000

080e1608 <HAL_FLASHEx_Erase>:
 80e1608:	e92d 43f8 	stmdb	sp!, {r3, r4, r5, r6, r7, r8, r9, lr}
 80e160c:	4e2c      	ldr	r6, [pc, #176]	; (80e16c0 <HAL_FLASHEx_Erase+0xb8>)
 80e160e:	4605      	mov	r5, r0
 80e1610:	460f      	mov	r7, r1
 80e1612:	7d33      	ldrb	r3, [r6, #20]
 80e1614:	2b01      	cmp	r3, #1
 80e1616:	d051      	beq.n	80e16bc <HAL_FLASHEx_Erase+0xb4>
 80e1618:	2300      	movs	r3, #0
 80e161a:	2401      	movs	r4, #1
 80e161c:	61b3      	str	r3, [r6, #24]
 80e161e:	7534      	strb	r4, [r6, #20]
 80e1620:	6843      	ldr	r3, [r0, #4]
 80e1622:	07d9      	lsls	r1, r3, #31
 80e1624:	d40e      	bmi.n	80e1644 <HAL_FLASHEx_Erase+0x3c>
 80e1626:	682c      	ldr	r4, [r5, #0]
 80e1628:	2c01      	cmp	r4, #1
 80e162a:	d122      	bne.n	80e1672 <HAL_FLASHEx_Erase+0x6a>
 80e162c:	6869      	ldr	r1, [r5, #4]
 80e162e:	6928      	ldr	r0, [r5, #16]
 80e1630:	f7ff ffc6 	bl	80e15c0 <FLASH_MassErase>
 80e1634:	686b      	ldr	r3, [r5, #4]
 80e1636:	07da      	lsls	r2, r3, #31
 80e1638:	d40d      	bmi.n	80e1656 <HAL_FLASHEx_Erase+0x4e>
 80e163a:	2000      	movs	r0, #0
 80e163c:	2300      	movs	r3, #0
 80e163e:	7533      	strb	r3, [r6, #20]
 80e1640:	e8bd 83f8 	ldmia.w	sp!, {r3, r4, r5, r6, r7, r8, r9, pc}
 80e1644:	4621      	mov	r1, r4
 80e1646:	f24c 3050 	movw	r0, #50000	; 0xc350
 80e164a:	f7ff ff49 	bl	80e14e0 <FLASH_WaitForLastOperation>
 80e164e:	2800      	cmp	r0, #0
 80e1650:	d0e9      	beq.n	80e1626 <HAL_FLASHEx_Erase+0x1e>
 80e1652:	4620      	mov	r0, r4
 80e1654:	e7f2      	b.n	80e163c <HAL_FLASHEx_Erase+0x34>
 80e1656:	4621      	mov	r1, r4
 80e1658:	f24c 3050 	movw	r0, #50000	; 0xc350
 80e165c:	f7ff ff40 	bl	80e14e0 <FLASH_WaitForLastOperation>
 80e1660:	4a18      	ldr	r2, [pc, #96]	; (80e16c4 <HAL_FLASHEx_Erase+0xbc>)
 80e1662:	3800      	subs	r0, #0
 80e1664:	68d3      	ldr	r3, [r2, #12]
 80e1666:	bf18      	it	ne
 80e1668:	2001      	movne	r0, #1
 80e166a:	f023 0308 	bic.w	r3, r3, #8
 80e166e:	60d3      	str	r3, [r2, #12]
 80e1670:	e7e4      	b.n	80e163c <HAL_FLASHEx_Erase+0x34>
 80e1672:	f04f 33ff 	mov.w	r3, #4294967295
 80e1676:	f8df 804c 	ldr.w	r8, [pc, #76]	; 80e16c4 <HAL_FLASHEx_Erase+0xbc>
 80e167a:	f8df 904c 	ldr.w	r9, [pc, #76]	; 80e16c8 <HAL_FLASHEx_Erase+0xc0>
 80e167e:	603b      	str	r3, [r7, #0]
 80e1680:	68ac      	ldr	r4, [r5, #8]
 80e1682:	e9d5 2302 	ldrd	r2, r3, [r5, #8]
 80e1686:	4413      	add	r3, r2
 80e1688:	42a3      	cmp	r3, r4
 80e168a:	d9d6      	bls.n	80e163a <HAL_FLASHEx_Erase+0x32>
 80e168c:	692a      	ldr	r2, [r5, #16]
 80e168e:	4620      	mov	r0, r4
 80e1690:	6869      	ldr	r1, [r5, #4]
 80e1692:	f7ff ffa7 	bl	80e15e4 <FLASH_Erase_Sector>
 80e1696:	686b      	ldr	r3, [r5, #4]
 80e1698:	07db      	lsls	r3, r3, #31
 80e169a:	d50d      	bpl.n	80e16b8 <HAL_FLASHEx_Erase+0xb0>
 80e169c:	2101      	movs	r1, #1
 80e169e:	f24c 3050 	movw	r0, #50000	; 0xc350
 80e16a2:	f7ff ff1d 	bl	80e14e0 <FLASH_WaitForLastOperation>
 80e16a6:	f8d8 300c 	ldr.w	r3, [r8, #12]
 80e16aa:	ea03 0309 	and.w	r3, r3, r9
 80e16ae:	f8c8 300c 	str.w	r3, [r8, #12]
 80e16b2:	b108      	cbz	r0, 80e16b8 <HAL_FLASHEx_Erase+0xb0>
 80e16b4:	603c      	str	r4, [r7, #0]
 80e16b6:	e7c1      	b.n	80e163c <HAL_FLASHEx_Erase+0x34>
 80e16b8:	3401      	adds	r4, #1
 80e16ba:	e7e2      	b.n	80e1682 <HAL_FLASHEx_Erase+0x7a>
 80e16bc:	2002      	movs	r0, #2
 80e16be:	e7bf      	b.n	80e1640 <HAL_FLASHEx_Erase+0x38>
 80e16c0:	2400017c 	.word	0x2400017c
 80e16c4:	52002000 	.word	0x52002000
 80e16c8:	fffff8fb 	.word	0xfffff8fb

080e16cc <HAL_GPIO_Init>:
 80e16cc:	e92d 4ff7 	stmdb	sp!, {r0, r1, r2, r4, r5, r6, r7, r8, r9, sl, fp, lr}
 80e16d0:	2300      	movs	r3, #0
 80e16d2:	f8df 91c0 	ldr.w	r9, [pc, #448]	; 80e1894 <HAL_GPIO_Init+0x1c8>
 80e16d6:	f04f 44b0 	mov.w	r4, #1476395008	; 0x58000000
 80e16da:	680a      	ldr	r2, [r1, #0]
 80e16dc:	fa32 f503 	lsrs.w	r5, r2, r3
 80e16e0:	d102      	bne.n	80e16e8 <HAL_GPIO_Init+0x1c>
 80e16e2:	b003      	add	sp, #12
 80e16e4:	e8bd 8ff0 	ldmia.w	sp!, {r4, r5, r6, r7, r8, r9, sl, fp, pc}
 80e16e8:	f04f 0e01 	mov.w	lr, #1
 80e16ec:	fa0e fe03 	lsl.w	lr, lr, r3
 80e16f0:	ea1e 0202 	ands.w	r2, lr, r2
 80e16f4:	f000 80b9 	beq.w	80e186a <HAL_GPIO_Init+0x19e>
 80e16f8:	684e      	ldr	r6, [r1, #4]
 80e16fa:	ea4f 0843 	mov.w	r8, r3, lsl #1
 80e16fe:	f04f 0c03 	mov.w	ip, #3
 80e1702:	f006 0503 	and.w	r5, r6, #3
 80e1706:	fa0c fc08 	lsl.w	ip, ip, r8
 80e170a:	1e6f      	subs	r7, r5, #1
 80e170c:	ea6f 0c0c 	mvn.w	ip, ip
 80e1710:	2f01      	cmp	r7, #1
 80e1712:	d834      	bhi.n	80e177e <HAL_GPIO_Init+0xb2>
 80e1714:	6887      	ldr	r7, [r0, #8]
 80e1716:	ea07 0a0c 	and.w	sl, r7, ip
 80e171a:	68cf      	ldr	r7, [r1, #12]
 80e171c:	fa07 f708 	lsl.w	r7, r7, r8
 80e1720:	ea47 070a 	orr.w	r7, r7, sl
 80e1724:	6087      	str	r7, [r0, #8]
 80e1726:	6847      	ldr	r7, [r0, #4]
 80e1728:	ea27 0e0e 	bic.w	lr, r7, lr
 80e172c:	f3c6 1700 	ubfx	r7, r6, #4, #1
 80e1730:	409f      	lsls	r7, r3
 80e1732:	ea47 070e 	orr.w	r7, r7, lr
 80e1736:	6047      	str	r7, [r0, #4]
 80e1738:	68c7      	ldr	r7, [r0, #12]
 80e173a:	2d02      	cmp	r5, #2
 80e173c:	ea07 0e0c 	and.w	lr, r7, ip
 80e1740:	688f      	ldr	r7, [r1, #8]
 80e1742:	fa07 f708 	lsl.w	r7, r7, r8
 80e1746:	ea47 070e 	orr.w	r7, r7, lr
 80e174a:	60c7      	str	r7, [r0, #12]
 80e174c:	d119      	bne.n	80e1782 <HAL_GPIO_Init+0xb6>
 80e174e:	ea4f 0ad3 	mov.w	sl, r3, lsr #3
 80e1752:	f003 0b07 	and.w	fp, r3, #7
 80e1756:	f04f 0e0f 	mov.w	lr, #15
 80e175a:	eb00 0a8a 	add.w	sl, r0, sl, lsl #2
 80e175e:	ea4f 0b8b 	mov.w	fp, fp, lsl #2
 80e1762:	f8da 7020 	ldr.w	r7, [sl, #32]
 80e1766:	fa0e fe0b 	lsl.w	lr, lr, fp
 80e176a:	ea27 0e0e 	bic.w	lr, r7, lr
 80e176e:	690f      	ldr	r7, [r1, #16]
 80e1770:	fa07 f70b 	lsl.w	r7, r7, fp
 80e1774:	ea47 070e 	orr.w	r7, r7, lr
 80e1778:	f8ca 7020 	str.w	r7, [sl, #32]
 80e177c:	e001      	b.n	80e1782 <HAL_GPIO_Init+0xb6>
 80e177e:	2d03      	cmp	r5, #3
 80e1780:	d1da      	bne.n	80e1738 <HAL_GPIO_Init+0x6c>
 80e1782:	6807      	ldr	r7, [r0, #0]
 80e1784:	fa05 f508 	lsl.w	r5, r5, r8
 80e1788:	f416 3f40 	tst.w	r6, #196608	; 0x30000
 80e178c:	ea07 070c 	and.w	r7, r7, ip
 80e1790:	ea47 0705 	orr.w	r7, r7, r5
 80e1794:	6007      	str	r7, [r0, #0]
 80e1796:	d068      	beq.n	80e186a <HAL_GPIO_Init+0x19e>
 80e1798:	f8d9 50f4 	ldr.w	r5, [r9, #244]	; 0xf4
 80e179c:	f023 0703 	bic.w	r7, r3, #3
 80e17a0:	f003 0c03 	and.w	ip, r3, #3
 80e17a4:	f04f 0e0f 	mov.w	lr, #15
 80e17a8:	f045 0502 	orr.w	r5, r5, #2
 80e17ac:	f107 47b0 	add.w	r7, r7, #1476395008	; 0x58000000
 80e17b0:	ea4f 0c8c 	mov.w	ip, ip, lsl #2
 80e17b4:	f8c9 50f4 	str.w	r5, [r9, #244]	; 0xf4
 80e17b8:	f507 6780 	add.w	r7, r7, #1024	; 0x400
 80e17bc:	f8d9 50f4 	ldr.w	r5, [r9, #244]	; 0xf4
 80e17c0:	f005 0502 	and.w	r5, r5, #2
 80e17c4:	9501      	str	r5, [sp, #4]
 80e17c6:	9d01      	ldr	r5, [sp, #4]
 80e17c8:	fa0e f50c 	lsl.w	r5, lr, ip
 80e17cc:	f8d7 8008 	ldr.w	r8, [r7, #8]
 80e17d0:	ea28 0e05 	bic.w	lr, r8, r5
 80e17d4:	4d2e      	ldr	r5, [pc, #184]	; (80e1890 <HAL_GPIO_Init+0x1c4>)
 80e17d6:	42a8      	cmp	r0, r5
 80e17d8:	d049      	beq.n	80e186e <HAL_GPIO_Init+0x1a2>
 80e17da:	f505 6580 	add.w	r5, r5, #1024	; 0x400
 80e17de:	42a8      	cmp	r0, r5
 80e17e0:	d047      	beq.n	80e1872 <HAL_GPIO_Init+0x1a6>
 80e17e2:	f505 6580 	add.w	r5, r5, #1024	; 0x400
 80e17e6:	42a8      	cmp	r0, r5
 80e17e8:	d045      	beq.n	80e1876 <HAL_GPIO_Init+0x1aa>
 80e17ea:	f505 6580 	add.w	r5, r5, #1024	; 0x400
 80e17ee:	42a8      	cmp	r0, r5
 80e17f0:	d043      	beq.n	80e187a <HAL_GPIO_Init+0x1ae>
 80e17f2:	f505 6580 	add.w	r5, r5, #1024	; 0x400
 80e17f6:	42a8      	cmp	r0, r5
 80e17f8:	d041      	beq.n	80e187e <HAL_GPIO_Init+0x1b2>
 80e17fa:	f505 6580 	add.w	r5, r5, #1024	; 0x400
 80e17fe:	42a8      	cmp	r0, r5
 80e1800:	d03f      	beq.n	80e1882 <HAL_GPIO_Init+0x1b6>
 80e1802:	f505 6580 	add.w	r5, r5, #1024	; 0x400
 80e1806:	42a8      	cmp	r0, r5
 80e1808:	d03d      	beq.n	80e1886 <HAL_GPIO_Init+0x1ba>
 80e180a:	f505 6580 	add.w	r5, r5, #1024	; 0x400
 80e180e:	42a8      	cmp	r0, r5
 80e1810:	d03b      	beq.n	80e188a <HAL_GPIO_Init+0x1be>
 80e1812:	f505 6500 	add.w	r5, r5, #2048	; 0x800
 80e1816:	42a8      	cmp	r0, r5
 80e1818:	bf0c      	ite	eq
 80e181a:	2509      	moveq	r5, #9
 80e181c:	250a      	movne	r5, #10
 80e181e:	fa05 f50c 	lsl.w	r5, r5, ip
 80e1822:	f416 1f80 	tst.w	r6, #1048576	; 0x100000
 80e1826:	ea45 050e 	orr.w	r5, r5, lr
 80e182a:	60bd      	str	r5, [r7, #8]
 80e182c:	ea6f 0702 	mvn.w	r7, r2
 80e1830:	6825      	ldr	r5, [r4, #0]
 80e1832:	bf0c      	ite	eq
 80e1834:	403d      	andeq	r5, r7
 80e1836:	4315      	orrne	r5, r2
 80e1838:	f416 1f00 	tst.w	r6, #2097152	; 0x200000
 80e183c:	6025      	str	r5, [r4, #0]
 80e183e:	6865      	ldr	r5, [r4, #4]
 80e1840:	bf0c      	ite	eq
 80e1842:	403d      	andeq	r5, r7
 80e1844:	4315      	orrne	r5, r2
 80e1846:	f416 3f00 	tst.w	r6, #131072	; 0x20000
 80e184a:	6065      	str	r5, [r4, #4]
 80e184c:	f8d4 5084 	ldr.w	r5, [r4, #132]	; 0x84
 80e1850:	bf0c      	ite	eq
 80e1852:	403d      	andeq	r5, r7
 80e1854:	4315      	orrne	r5, r2
 80e1856:	03f6      	lsls	r6, r6, #15
 80e1858:	f8c4 5084 	str.w	r5, [r4, #132]	; 0x84
 80e185c:	f8d4 5080 	ldr.w	r5, [r4, #128]	; 0x80
 80e1860:	bf54      	ite	pl
 80e1862:	403d      	andpl	r5, r7
 80e1864:	4315      	orrmi	r5, r2
 80e1866:	f8c4 5080 	str.w	r5, [r4, #128]	; 0x80
 80e186a:	3301      	adds	r3, #1
 80e186c:	e735      	b.n	80e16da <HAL_GPIO_Init+0xe>
 80e186e:	2500      	movs	r5, #0
 80e1870:	e7d5      	b.n	80e181e <HAL_GPIO_Init+0x152>
 80e1872:	2501      	movs	r5, #1
 80e1874:	e7d3      	b.n	80e181e <HAL_GPIO_Init+0x152>
 80e1876:	2502      	movs	r5, #2
 80e1878:	e7d1      	b.n	80e181e <HAL_GPIO_Init+0x152>
 80e187a:	2503      	movs	r5, #3
 80e187c:	e7cf      	b.n	80e181e <HAL_GPIO_Init+0x152>
 80e187e:	2504      	movs	r5, #4
 80e1880:	e7cd      	b.n	80e181e <HAL_GPIO_Init+0x152>
 80e1882:	2505      	movs	r5, #5
 80e1884:	e7cb      	b.n	80e181e <HAL_GPIO_Init+0x152>
 80e1886:	2506      	movs	r5, #6
 80e1888:	e7c9      	b.n	80e181e <HAL_GPIO_Init+0x152>
 80e188a:	2507      	movs	r5, #7
 80e188c:	e7c7      	b.n	80e181e <HAL_GPIO_Init+0x152>
 80e188e:	bf00      	nop
 80e1890:	58020000 	.word	0x58020000
 80e1894:	58024400 	.word	0x58024400

080e1898 <HAL_GPIO_WritePin>:
 80e1898:	b10a      	cbz	r2, 80e189e <HAL_GPIO_WritePin+0x6>
 80e189a:	6181      	str	r1, [r0, #24]
 80e189c:	4770      	bx	lr
 80e189e:	0409      	lsls	r1, r1, #16
 80e18a0:	e7fb      	b.n	80e189a <HAL_GPIO_WritePin+0x2>

080e18a2 <HAL_GPIO_TogglePin>:
 80e18a2:	6943      	ldr	r3, [r0, #20]
 80e18a4:	ea01 0203 	and.w	r2, r1, r3
 80e18a8:	ea21 0103 	bic.w	r1, r1, r3
 80e18ac:	ea41 4102 	orr.w	r1, r1, r2, lsl #16
 80e18b0:	6181      	str	r1, [r0, #24]
 80e18b2:	4770      	bx	lr

080e18b4 <HAL_PWREx_ConfigSupply>:
 80e18b4:	b538      	push	{r3, r4, r5, lr}
 80e18b6:	4c10      	ldr	r4, [pc, #64]	; (80e18f8 <HAL_PWREx_ConfigSupply+0x44>)
 80e18b8:	68e3      	ldr	r3, [r4, #12]
 80e18ba:	f013 0f04 	tst.w	r3, #4
 80e18be:	68e3      	ldr	r3, [r4, #12]
 80e18c0:	d105      	bne.n	80e18ce <HAL_PWREx_ConfigSupply+0x1a>
 80e18c2:	f003 0307 	and.w	r3, r3, #7
 80e18c6:	1a18      	subs	r0, r3, r0
 80e18c8:	bf18      	it	ne
 80e18ca:	2001      	movne	r0, #1
 80e18cc:	bd38      	pop	{r3, r4, r5, pc}
 80e18ce:	f023 0307 	bic.w	r3, r3, #7
 80e18d2:	4318      	orrs	r0, r3
 80e18d4:	60e0      	str	r0, [r4, #12]
 80e18d6:	f7ff fa1f 	bl	80e0d18 <HAL_GetTick>
 80e18da:	4605      	mov	r5, r0
 80e18dc:	6863      	ldr	r3, [r4, #4]
 80e18de:	049b      	lsls	r3, r3, #18
 80e18e0:	d501      	bpl.n	80e18e6 <HAL_PWREx_ConfigSupply+0x32>
 80e18e2:	2000      	movs	r0, #0
 80e18e4:	e7f2      	b.n	80e18cc <HAL_PWREx_ConfigSupply+0x18>
 80e18e6:	f7ff fa17 	bl	80e0d18 <HAL_GetTick>
 80e18ea:	1b40      	subs	r0, r0, r5
 80e18ec:	f5b0 7f7a 	cmp.w	r0, #1000	; 0x3e8
 80e18f0:	d9f4      	bls.n	80e18dc <HAL_PWREx_ConfigSupply+0x28>
 80e18f2:	2001      	movs	r0, #1
 80e18f4:	e7ea      	b.n	80e18cc <HAL_PWREx_ConfigSupply+0x18>
 80e18f6:	bf00      	nop
 80e18f8:	58024800 	.word	0x58024800

080e18fc <HAL_RCC_OscConfig>:
 80e18fc:	b5f8      	push	{r3, r4, r5, r6, r7, lr}
 80e18fe:	4604      	mov	r4, r0
 80e1900:	b908      	cbnz	r0, 80e1906 <HAL_RCC_OscConfig+0xa>
 80e1902:	2001      	movs	r0, #1
 80e1904:	e07f      	b.n	80e1a06 <HAL_RCC_OscConfig+0x10a>
 80e1906:	6803      	ldr	r3, [r0, #0]
 80e1908:	07df      	lsls	r7, r3, #31
 80e190a:	d453      	bmi.n	80e19b4 <HAL_RCC_OscConfig+0xb8>
 80e190c:	6823      	ldr	r3, [r4, #0]
 80e190e:	079e      	lsls	r6, r3, #30
 80e1910:	f100 80a3 	bmi.w	80e1a5a <HAL_RCC_OscConfig+0x15e>
 80e1914:	6823      	ldr	r3, [r4, #0]
 80e1916:	06da      	lsls	r2, r3, #27
 80e1918:	d51c      	bpl.n	80e1954 <HAL_RCC_OscConfig+0x58>
 80e191a:	4b98      	ldr	r3, [pc, #608]	; (80e1b7c <HAL_RCC_OscConfig+0x280>)
 80e191c:	691a      	ldr	r2, [r3, #16]
 80e191e:	6a99      	ldr	r1, [r3, #40]	; 0x28
 80e1920:	f002 0238 	and.w	r2, r2, #56	; 0x38
 80e1924:	2a08      	cmp	r2, #8
 80e1926:	d007      	beq.n	80e1938 <HAL_RCC_OscConfig+0x3c>
 80e1928:	2a18      	cmp	r2, #24
 80e192a:	f040 80e5 	bne.w	80e1af8 <HAL_RCC_OscConfig+0x1fc>
 80e192e:	f001 0203 	and.w	r2, r1, #3
 80e1932:	2a01      	cmp	r2, #1
 80e1934:	f040 80e0 	bne.w	80e1af8 <HAL_RCC_OscConfig+0x1fc>
 80e1938:	681b      	ldr	r3, [r3, #0]
 80e193a:	05db      	lsls	r3, r3, #23
 80e193c:	d502      	bpl.n	80e1944 <HAL_RCC_OscConfig+0x48>
 80e193e:	69e3      	ldr	r3, [r4, #28]
 80e1940:	2b80      	cmp	r3, #128	; 0x80
 80e1942:	d1de      	bne.n	80e1902 <HAL_RCC_OscConfig+0x6>
 80e1944:	4a8d      	ldr	r2, [pc, #564]	; (80e1b7c <HAL_RCC_OscConfig+0x280>)
 80e1946:	6a21      	ldr	r1, [r4, #32]
 80e1948:	68d3      	ldr	r3, [r2, #12]
 80e194a:	f023 537c 	bic.w	r3, r3, #1056964608	; 0x3f000000
 80e194e:	ea43 6301 	orr.w	r3, r3, r1, lsl #24
 80e1952:	60d3      	str	r3, [r2, #12]
 80e1954:	6823      	ldr	r3, [r4, #0]
 80e1956:	0719      	lsls	r1, r3, #28
 80e1958:	f100 80fb 	bmi.w	80e1b52 <HAL_RCC_OscConfig+0x256>
 80e195c:	6823      	ldr	r3, [r4, #0]
 80e195e:	069a      	lsls	r2, r3, #26
 80e1960:	f100 8121 	bmi.w	80e1ba6 <HAL_RCC_OscConfig+0x2aa>
 80e1964:	6823      	ldr	r3, [r4, #0]
 80e1966:	075d      	lsls	r5, r3, #29
 80e1968:	d51e      	bpl.n	80e19a8 <HAL_RCC_OscConfig+0xac>
 80e196a:	4d85      	ldr	r5, [pc, #532]	; (80e1b80 <HAL_RCC_OscConfig+0x284>)
 80e196c:	682b      	ldr	r3, [r5, #0]
 80e196e:	f443 7380 	orr.w	r3, r3, #256	; 0x100
 80e1972:	602b      	str	r3, [r5, #0]
 80e1974:	f7ff f9d0 	bl	80e0d18 <HAL_GetTick>
 80e1978:	4606      	mov	r6, r0
 80e197a:	682b      	ldr	r3, [r5, #0]
 80e197c:	05da      	lsls	r2, r3, #23
 80e197e:	f140 8137 	bpl.w	80e1bf0 <HAL_RCC_OscConfig+0x2f4>
 80e1982:	68a3      	ldr	r3, [r4, #8]
 80e1984:	4d7d      	ldr	r5, [pc, #500]	; (80e1b7c <HAL_RCC_OscConfig+0x280>)
 80e1986:	2b01      	cmp	r3, #1
 80e1988:	f040 8139 	bne.w	80e1bfe <HAL_RCC_OscConfig+0x302>
 80e198c:	6f2b      	ldr	r3, [r5, #112]	; 0x70
 80e198e:	f043 0301 	orr.w	r3, r3, #1
 80e1992:	672b      	str	r3, [r5, #112]	; 0x70
 80e1994:	f241 3788 	movw	r7, #5000	; 0x1388
 80e1998:	f7ff f9be 	bl	80e0d18 <HAL_GetTick>
 80e199c:	4e77      	ldr	r6, [pc, #476]	; (80e1b7c <HAL_RCC_OscConfig+0x280>)
 80e199e:	4605      	mov	r5, r0
 80e19a0:	6f33      	ldr	r3, [r6, #112]	; 0x70
 80e19a2:	079b      	lsls	r3, r3, #30
 80e19a4:	f140 8151 	bpl.w	80e1c4a <HAL_RCC_OscConfig+0x34e>
 80e19a8:	6a60      	ldr	r0, [r4, #36]	; 0x24
 80e19aa:	2800      	cmp	r0, #0
 80e19ac:	f040 8154 	bne.w	80e1c58 <HAL_RCC_OscConfig+0x35c>
 80e19b0:	2000      	movs	r0, #0
 80e19b2:	e028      	b.n	80e1a06 <HAL_RCC_OscConfig+0x10a>
 80e19b4:	4b71      	ldr	r3, [pc, #452]	; (80e1b7c <HAL_RCC_OscConfig+0x280>)
 80e19b6:	691a      	ldr	r2, [r3, #16]
 80e19b8:	6a99      	ldr	r1, [r3, #40]	; 0x28
 80e19ba:	f002 0238 	and.w	r2, r2, #56	; 0x38
 80e19be:	2a10      	cmp	r2, #16
 80e19c0:	d005      	beq.n	80e19ce <HAL_RCC_OscConfig+0xd2>
 80e19c2:	2a18      	cmp	r2, #24
 80e19c4:	d10a      	bne.n	80e19dc <HAL_RCC_OscConfig+0xe0>
 80e19c6:	f001 0203 	and.w	r2, r1, #3
 80e19ca:	2a02      	cmp	r2, #2
 80e19cc:	d106      	bne.n	80e19dc <HAL_RCC_OscConfig+0xe0>
 80e19ce:	681b      	ldr	r3, [r3, #0]
 80e19d0:	039d      	lsls	r5, r3, #14
 80e19d2:	d59b      	bpl.n	80e190c <HAL_RCC_OscConfig+0x10>
 80e19d4:	6863      	ldr	r3, [r4, #4]
 80e19d6:	2b00      	cmp	r3, #0
 80e19d8:	d198      	bne.n	80e190c <HAL_RCC_OscConfig+0x10>
 80e19da:	e792      	b.n	80e1902 <HAL_RCC_OscConfig+0x6>
 80e19dc:	6862      	ldr	r2, [r4, #4]
 80e19de:	f5b2 3f80 	cmp.w	r2, #65536	; 0x10000
 80e19e2:	d111      	bne.n	80e1a08 <HAL_RCC_OscConfig+0x10c>
 80e19e4:	681a      	ldr	r2, [r3, #0]
 80e19e6:	f442 3280 	orr.w	r2, r2, #65536	; 0x10000
 80e19ea:	601a      	str	r2, [r3, #0]
 80e19ec:	f7ff f994 	bl	80e0d18 <HAL_GetTick>
 80e19f0:	4e62      	ldr	r6, [pc, #392]	; (80e1b7c <HAL_RCC_OscConfig+0x280>)
 80e19f2:	4605      	mov	r5, r0
 80e19f4:	6833      	ldr	r3, [r6, #0]
 80e19f6:	0398      	lsls	r0, r3, #14
 80e19f8:	d488      	bmi.n	80e190c <HAL_RCC_OscConfig+0x10>
 80e19fa:	f7ff f98d 	bl	80e0d18 <HAL_GetTick>
 80e19fe:	1b40      	subs	r0, r0, r5
 80e1a00:	2864      	cmp	r0, #100	; 0x64
 80e1a02:	d9f7      	bls.n	80e19f4 <HAL_RCC_OscConfig+0xf8>
 80e1a04:	2003      	movs	r0, #3
 80e1a06:	bdf8      	pop	{r3, r4, r5, r6, r7, pc}
 80e1a08:	4d5c      	ldr	r5, [pc, #368]	; (80e1b7c <HAL_RCC_OscConfig+0x280>)
 80e1a0a:	682b      	ldr	r3, [r5, #0]
 80e1a0c:	b99a      	cbnz	r2, 80e1a36 <HAL_RCC_OscConfig+0x13a>
 80e1a0e:	f423 3380 	bic.w	r3, r3, #65536	; 0x10000
 80e1a12:	602b      	str	r3, [r5, #0]
 80e1a14:	682b      	ldr	r3, [r5, #0]
 80e1a16:	f423 2380 	bic.w	r3, r3, #262144	; 0x40000
 80e1a1a:	602b      	str	r3, [r5, #0]
 80e1a1c:	f7ff f97c 	bl	80e0d18 <HAL_GetTick>
 80e1a20:	4606      	mov	r6, r0
 80e1a22:	682b      	ldr	r3, [r5, #0]
 80e1a24:	0399      	lsls	r1, r3, #14
 80e1a26:	f57f af71 	bpl.w	80e190c <HAL_RCC_OscConfig+0x10>
 80e1a2a:	f7ff f975 	bl	80e0d18 <HAL_GetTick>
 80e1a2e:	1b80      	subs	r0, r0, r6
 80e1a30:	2864      	cmp	r0, #100	; 0x64
 80e1a32:	d9f6      	bls.n	80e1a22 <HAL_RCC_OscConfig+0x126>
 80e1a34:	e7e6      	b.n	80e1a04 <HAL_RCC_OscConfig+0x108>
 80e1a36:	f5b2 2fa0 	cmp.w	r2, #327680	; 0x50000
 80e1a3a:	d107      	bne.n	80e1a4c <HAL_RCC_OscConfig+0x150>
 80e1a3c:	f443 2380 	orr.w	r3, r3, #262144	; 0x40000
 80e1a40:	602b      	str	r3, [r5, #0]
 80e1a42:	682b      	ldr	r3, [r5, #0]
 80e1a44:	f443 3380 	orr.w	r3, r3, #65536	; 0x10000
 80e1a48:	602b      	str	r3, [r5, #0]
 80e1a4a:	e7cf      	b.n	80e19ec <HAL_RCC_OscConfig+0xf0>
 80e1a4c:	f423 3380 	bic.w	r3, r3, #65536	; 0x10000
 80e1a50:	602b      	str	r3, [r5, #0]
 80e1a52:	682b      	ldr	r3, [r5, #0]
 80e1a54:	f423 2380 	bic.w	r3, r3, #262144	; 0x40000
 80e1a58:	e7f6      	b.n	80e1a48 <HAL_RCC_OscConfig+0x14c>
 80e1a5a:	4b48      	ldr	r3, [pc, #288]	; (80e1b7c <HAL_RCC_OscConfig+0x280>)
 80e1a5c:	68e1      	ldr	r1, [r4, #12]
 80e1a5e:	691a      	ldr	r2, [r3, #16]
 80e1a60:	6a98      	ldr	r0, [r3, #40]	; 0x28
 80e1a62:	f012 0238 	ands.w	r2, r2, #56	; 0x38
 80e1a66:	d003      	beq.n	80e1a70 <HAL_RCC_OscConfig+0x174>
 80e1a68:	2a18      	cmp	r2, #24
 80e1a6a:	d121      	bne.n	80e1ab0 <HAL_RCC_OscConfig+0x1b4>
 80e1a6c:	0782      	lsls	r2, r0, #30
 80e1a6e:	d11f      	bne.n	80e1ab0 <HAL_RCC_OscConfig+0x1b4>
 80e1a70:	681b      	ldr	r3, [r3, #0]
 80e1a72:	075b      	lsls	r3, r3, #29
 80e1a74:	d502      	bpl.n	80e1a7c <HAL_RCC_OscConfig+0x180>
 80e1a76:	2900      	cmp	r1, #0
 80e1a78:	f43f af43 	beq.w	80e1902 <HAL_RCC_OscConfig+0x6>
 80e1a7c:	4d3f      	ldr	r5, [pc, #252]	; (80e1b7c <HAL_RCC_OscConfig+0x280>)
 80e1a7e:	682a      	ldr	r2, [r5, #0]
 80e1a80:	f022 0219 	bic.w	r2, r2, #25
 80e1a84:	430a      	orrs	r2, r1
 80e1a86:	602a      	str	r2, [r5, #0]
 80e1a88:	f7ff f946 	bl	80e0d18 <HAL_GetTick>
 80e1a8c:	4606      	mov	r6, r0
 80e1a8e:	682b      	ldr	r3, [r5, #0]
 80e1a90:	075f      	lsls	r7, r3, #29
 80e1a92:	d507      	bpl.n	80e1aa4 <HAL_RCC_OscConfig+0x1a8>
 80e1a94:	686b      	ldr	r3, [r5, #4]
 80e1a96:	6922      	ldr	r2, [r4, #16]
 80e1a98:	f023 43fe 	bic.w	r3, r3, #2130706432	; 0x7f000000
 80e1a9c:	ea43 6302 	orr.w	r3, r3, r2, lsl #24
 80e1aa0:	606b      	str	r3, [r5, #4]
 80e1aa2:	e737      	b.n	80e1914 <HAL_RCC_OscConfig+0x18>
 80e1aa4:	f7ff f938 	bl	80e0d18 <HAL_GetTick>
 80e1aa8:	1b80      	subs	r0, r0, r6
 80e1aaa:	2802      	cmp	r0, #2
 80e1aac:	d9ef      	bls.n	80e1a8e <HAL_RCC_OscConfig+0x192>
 80e1aae:	e7a9      	b.n	80e1a04 <HAL_RCC_OscConfig+0x108>
 80e1ab0:	681a      	ldr	r2, [r3, #0]
 80e1ab2:	b181      	cbz	r1, 80e1ad6 <HAL_RCC_OscConfig+0x1da>
 80e1ab4:	f022 0219 	bic.w	r2, r2, #25
 80e1ab8:	4d30      	ldr	r5, [pc, #192]	; (80e1b7c <HAL_RCC_OscConfig+0x280>)
 80e1aba:	430a      	orrs	r2, r1
 80e1abc:	601a      	str	r2, [r3, #0]
 80e1abe:	f7ff f92b 	bl	80e0d18 <HAL_GetTick>
 80e1ac2:	4606      	mov	r6, r0
 80e1ac4:	682b      	ldr	r3, [r5, #0]
 80e1ac6:	0758      	lsls	r0, r3, #29
 80e1ac8:	d4e4      	bmi.n	80e1a94 <HAL_RCC_OscConfig+0x198>
 80e1aca:	f7ff f925 	bl	80e0d18 <HAL_GetTick>
 80e1ace:	1b80      	subs	r0, r0, r6
 80e1ad0:	2802      	cmp	r0, #2
 80e1ad2:	d9f7      	bls.n	80e1ac4 <HAL_RCC_OscConfig+0x1c8>
 80e1ad4:	e796      	b.n	80e1a04 <HAL_RCC_OscConfig+0x108>
 80e1ad6:	f022 0201 	bic.w	r2, r2, #1
 80e1ada:	4e28      	ldr	r6, [pc, #160]	; (80e1b7c <HAL_RCC_OscConfig+0x280>)
 80e1adc:	601a      	str	r2, [r3, #0]
 80e1ade:	f7ff f91b 	bl	80e0d18 <HAL_GetTick>
 80e1ae2:	4605      	mov	r5, r0
 80e1ae4:	6833      	ldr	r3, [r6, #0]
 80e1ae6:	0759      	lsls	r1, r3, #29
 80e1ae8:	f57f af14 	bpl.w	80e1914 <HAL_RCC_OscConfig+0x18>
 80e1aec:	f7ff f914 	bl	80e0d18 <HAL_GetTick>
 80e1af0:	1b40      	subs	r0, r0, r5
 80e1af2:	2802      	cmp	r0, #2
 80e1af4:	d9f6      	bls.n	80e1ae4 <HAL_RCC_OscConfig+0x1e8>
 80e1af6:	e785      	b.n	80e1a04 <HAL_RCC_OscConfig+0x108>
 80e1af8:	69e2      	ldr	r2, [r4, #28]
 80e1afa:	b1c2      	cbz	r2, 80e1b2e <HAL_RCC_OscConfig+0x232>
 80e1afc:	681a      	ldr	r2, [r3, #0]
 80e1afe:	4d1f      	ldr	r5, [pc, #124]	; (80e1b7c <HAL_RCC_OscConfig+0x280>)
 80e1b00:	f042 0280 	orr.w	r2, r2, #128	; 0x80
 80e1b04:	601a      	str	r2, [r3, #0]
 80e1b06:	f7ff f907 	bl	80e0d18 <HAL_GetTick>
 80e1b0a:	4606      	mov	r6, r0
 80e1b0c:	682b      	ldr	r3, [r5, #0]
 80e1b0e:	05df      	lsls	r7, r3, #23
 80e1b10:	d507      	bpl.n	80e1b22 <HAL_RCC_OscConfig+0x226>
 80e1b12:	68eb      	ldr	r3, [r5, #12]
 80e1b14:	6a22      	ldr	r2, [r4, #32]
 80e1b16:	f023 537c 	bic.w	r3, r3, #1056964608	; 0x3f000000
 80e1b1a:	ea43 6302 	orr.w	r3, r3, r2, lsl #24
 80e1b1e:	60eb      	str	r3, [r5, #12]
 80e1b20:	e718      	b.n	80e1954 <HAL_RCC_OscConfig+0x58>
 80e1b22:	f7ff f8f9 	bl	80e0d18 <HAL_GetTick>
 80e1b26:	1b80      	subs	r0, r0, r6
 80e1b28:	2802      	cmp	r0, #2
 80e1b2a:	d9ef      	bls.n	80e1b0c <HAL_RCC_OscConfig+0x210>
 80e1b2c:	e76a      	b.n	80e1a04 <HAL_RCC_OscConfig+0x108>
 80e1b2e:	681a      	ldr	r2, [r3, #0]
 80e1b30:	4e12      	ldr	r6, [pc, #72]	; (80e1b7c <HAL_RCC_OscConfig+0x280>)
 80e1b32:	f022 0280 	bic.w	r2, r2, #128	; 0x80
 80e1b36:	601a      	str	r2, [r3, #0]
 80e1b38:	f7ff f8ee 	bl	80e0d18 <HAL_GetTick>
 80e1b3c:	4605      	mov	r5, r0
 80e1b3e:	6833      	ldr	r3, [r6, #0]
 80e1b40:	05d8      	lsls	r0, r3, #23
 80e1b42:	f57f af07 	bpl.w	80e1954 <HAL_RCC_OscConfig+0x58>
 80e1b46:	f7ff f8e7 	bl	80e0d18 <HAL_GetTick>
 80e1b4a:	1b40      	subs	r0, r0, r5
 80e1b4c:	2802      	cmp	r0, #2
 80e1b4e:	d9f6      	bls.n	80e1b3e <HAL_RCC_OscConfig+0x242>
 80e1b50:	e758      	b.n	80e1a04 <HAL_RCC_OscConfig+0x108>
 80e1b52:	6963      	ldr	r3, [r4, #20]
 80e1b54:	4d09      	ldr	r5, [pc, #36]	; (80e1b7c <HAL_RCC_OscConfig+0x280>)
 80e1b56:	b1ab      	cbz	r3, 80e1b84 <HAL_RCC_OscConfig+0x288>
 80e1b58:	6f6b      	ldr	r3, [r5, #116]	; 0x74
 80e1b5a:	f043 0301 	orr.w	r3, r3, #1
 80e1b5e:	676b      	str	r3, [r5, #116]	; 0x74
 80e1b60:	f7ff f8da 	bl	80e0d18 <HAL_GetTick>
 80e1b64:	4606      	mov	r6, r0
 80e1b66:	6f6b      	ldr	r3, [r5, #116]	; 0x74
 80e1b68:	079b      	lsls	r3, r3, #30
 80e1b6a:	f53f aef7 	bmi.w	80e195c <HAL_RCC_OscConfig+0x60>
 80e1b6e:	f7ff f8d3 	bl	80e0d18 <HAL_GetTick>
 80e1b72:	1b80      	subs	r0, r0, r6
 80e1b74:	2802      	cmp	r0, #2
 80e1b76:	d9f6      	bls.n	80e1b66 <HAL_RCC_OscConfig+0x26a>
 80e1b78:	e744      	b.n	80e1a04 <HAL_RCC_OscConfig+0x108>
 80e1b7a:	bf00      	nop
 80e1b7c:	58024400 	.word	0x58024400
 80e1b80:	58024800 	.word	0x58024800
 80e1b84:	6f6b      	ldr	r3, [r5, #116]	; 0x74
 80e1b86:	f023 0301 	bic.w	r3, r3, #1
 80e1b8a:	676b      	str	r3, [r5, #116]	; 0x74
 80e1b8c:	f7ff f8c4 	bl	80e0d18 <HAL_GetTick>
 80e1b90:	4606      	mov	r6, r0
 80e1b92:	6f6b      	ldr	r3, [r5, #116]	; 0x74
 80e1b94:	079f      	lsls	r7, r3, #30
 80e1b96:	f57f aee1 	bpl.w	80e195c <HAL_RCC_OscConfig+0x60>
 80e1b9a:	f7ff f8bd 	bl	80e0d18 <HAL_GetTick>
 80e1b9e:	1b80      	subs	r0, r0, r6
 80e1ba0:	2802      	cmp	r0, #2
 80e1ba2:	d9f6      	bls.n	80e1b92 <HAL_RCC_OscConfig+0x296>
 80e1ba4:	e72e      	b.n	80e1a04 <HAL_RCC_OscConfig+0x108>
 80e1ba6:	69a3      	ldr	r3, [r4, #24]
 80e1ba8:	4d83      	ldr	r5, [pc, #524]	; (80e1db8 <HAL_RCC_OscConfig+0x4bc>)
 80e1baa:	b183      	cbz	r3, 80e1bce <HAL_RCC_OscConfig+0x2d2>
 80e1bac:	682b      	ldr	r3, [r5, #0]
 80e1bae:	f443 5380 	orr.w	r3, r3, #4096	; 0x1000
 80e1bb2:	602b      	str	r3, [r5, #0]
 80e1bb4:	f7ff f8b0 	bl	80e0d18 <HAL_GetTick>
 80e1bb8:	4606      	mov	r6, r0
 80e1bba:	682b      	ldr	r3, [r5, #0]
 80e1bbc:	0498      	lsls	r0, r3, #18
 80e1bbe:	f53f aed1 	bmi.w	80e1964 <HAL_RCC_OscConfig+0x68>
 80e1bc2:	f7ff f8a9 	bl	80e0d18 <HAL_GetTick>
 80e1bc6:	1b80      	subs	r0, r0, r6
 80e1bc8:	2802      	cmp	r0, #2
 80e1bca:	d9f6      	bls.n	80e1bba <HAL_RCC_OscConfig+0x2be>
 80e1bcc:	e71a      	b.n	80e1a04 <HAL_RCC_OscConfig+0x108>
 80e1bce:	682b      	ldr	r3, [r5, #0]
 80e1bd0:	f423 5380 	bic.w	r3, r3, #4096	; 0x1000
 80e1bd4:	602b      	str	r3, [r5, #0]
 80e1bd6:	f7ff f89f 	bl	80e0d18 <HAL_GetTick>
 80e1bda:	4606      	mov	r6, r0
 80e1bdc:	682b      	ldr	r3, [r5, #0]
 80e1bde:	0499      	lsls	r1, r3, #18
 80e1be0:	f57f aec0 	bpl.w	80e1964 <HAL_RCC_OscConfig+0x68>
 80e1be4:	f7ff f898 	bl	80e0d18 <HAL_GetTick>
 80e1be8:	1b80      	subs	r0, r0, r6
 80e1bea:	2802      	cmp	r0, #2
 80e1bec:	d9f6      	bls.n	80e1bdc <HAL_RCC_OscConfig+0x2e0>
 80e1bee:	e709      	b.n	80e1a04 <HAL_RCC_OscConfig+0x108>
 80e1bf0:	f7ff f892 	bl	80e0d18 <HAL_GetTick>
 80e1bf4:	1b80      	subs	r0, r0, r6
 80e1bf6:	2864      	cmp	r0, #100	; 0x64
 80e1bf8:	f67f aebf 	bls.w	80e197a <HAL_RCC_OscConfig+0x7e>
 80e1bfc:	e702      	b.n	80e1a04 <HAL_RCC_OscConfig+0x108>
 80e1bfe:	b9b3      	cbnz	r3, 80e1c2e <HAL_RCC_OscConfig+0x332>
 80e1c00:	6f2b      	ldr	r3, [r5, #112]	; 0x70
 80e1c02:	f241 3788 	movw	r7, #5000	; 0x1388
 80e1c06:	f023 0301 	bic.w	r3, r3, #1
 80e1c0a:	672b      	str	r3, [r5, #112]	; 0x70
 80e1c0c:	6f2b      	ldr	r3, [r5, #112]	; 0x70
 80e1c0e:	f023 0304 	bic.w	r3, r3, #4
 80e1c12:	672b      	str	r3, [r5, #112]	; 0x70
 80e1c14:	f7ff f880 	bl	80e0d18 <HAL_GetTick>
 80e1c18:	4606      	mov	r6, r0
 80e1c1a:	6f2b      	ldr	r3, [r5, #112]	; 0x70
 80e1c1c:	0798      	lsls	r0, r3, #30
 80e1c1e:	f57f aec3 	bpl.w	80e19a8 <HAL_RCC_OscConfig+0xac>
 80e1c22:	f7ff f879 	bl	80e0d18 <HAL_GetTick>
 80e1c26:	1b80      	subs	r0, r0, r6
 80e1c28:	42b8      	cmp	r0, r7
 80e1c2a:	d9f6      	bls.n	80e1c1a <HAL_RCC_OscConfig+0x31e>
 80e1c2c:	e6ea      	b.n	80e1a04 <HAL_RCC_OscConfig+0x108>
 80e1c2e:	2b05      	cmp	r3, #5
 80e1c30:	6f2b      	ldr	r3, [r5, #112]	; 0x70
 80e1c32:	d103      	bne.n	80e1c3c <HAL_RCC_OscConfig+0x340>
 80e1c34:	f043 0304 	orr.w	r3, r3, #4
 80e1c38:	672b      	str	r3, [r5, #112]	; 0x70
 80e1c3a:	e6a7      	b.n	80e198c <HAL_RCC_OscConfig+0x90>
 80e1c3c:	f023 0301 	bic.w	r3, r3, #1
 80e1c40:	672b      	str	r3, [r5, #112]	; 0x70
 80e1c42:	6f2b      	ldr	r3, [r5, #112]	; 0x70
 80e1c44:	f023 0304 	bic.w	r3, r3, #4
 80e1c48:	e6a3      	b.n	80e1992 <HAL_RCC_OscConfig+0x96>
 80e1c4a:	f7ff f865 	bl	80e0d18 <HAL_GetTick>
 80e1c4e:	1b40      	subs	r0, r0, r5
 80e1c50:	42b8      	cmp	r0, r7
 80e1c52:	f67f aea5 	bls.w	80e19a0 <HAL_RCC_OscConfig+0xa4>
 80e1c56:	e6d5      	b.n	80e1a04 <HAL_RCC_OscConfig+0x108>
 80e1c58:	4d57      	ldr	r5, [pc, #348]	; (80e1db8 <HAL_RCC_OscConfig+0x4bc>)
 80e1c5a:	692b      	ldr	r3, [r5, #16]
 80e1c5c:	f003 0338 	and.w	r3, r3, #56	; 0x38
 80e1c60:	2b18      	cmp	r3, #24
 80e1c62:	d07a      	beq.n	80e1d5a <HAL_RCC_OscConfig+0x45e>
 80e1c64:	682b      	ldr	r3, [r5, #0]
 80e1c66:	2802      	cmp	r0, #2
 80e1c68:	f023 7380 	bic.w	r3, r3, #16777216	; 0x1000000
 80e1c6c:	602b      	str	r3, [r5, #0]
 80e1c6e:	d167      	bne.n	80e1d40 <HAL_RCC_OscConfig+0x444>
 80e1c70:	f7ff f852 	bl	80e0d18 <HAL_GetTick>
 80e1c74:	4606      	mov	r6, r0
 80e1c76:	682b      	ldr	r3, [r5, #0]
 80e1c78:	0199      	lsls	r1, r3, #6
 80e1c7a:	d45b      	bmi.n	80e1d34 <HAL_RCC_OscConfig+0x438>
 80e1c7c:	6aab      	ldr	r3, [r5, #40]	; 0x28
 80e1c7e:	6aa2      	ldr	r2, [r4, #40]	; 0x28
 80e1c80:	f423 737c 	bic.w	r3, r3, #1008	; 0x3f0
 80e1c84:	f023 0303 	bic.w	r3, r3, #3
 80e1c88:	4313      	orrs	r3, r2
 80e1c8a:	6ae2      	ldr	r2, [r4, #44]	; 0x2c
 80e1c8c:	ea43 1302 	orr.w	r3, r3, r2, lsl #4
 80e1c90:	62ab      	str	r3, [r5, #40]	; 0x28
 80e1c92:	6b63      	ldr	r3, [r4, #52]	; 0x34
 80e1c94:	6ba2      	ldr	r2, [r4, #56]	; 0x38
 80e1c96:	3b01      	subs	r3, #1
 80e1c98:	3a01      	subs	r2, #1
 80e1c9a:	025b      	lsls	r3, r3, #9
 80e1c9c:	0412      	lsls	r2, r2, #16
 80e1c9e:	b29b      	uxth	r3, r3
 80e1ca0:	f402 02fe 	and.w	r2, r2, #8323072	; 0x7f0000
 80e1ca4:	4313      	orrs	r3, r2
 80e1ca6:	6b22      	ldr	r2, [r4, #48]	; 0x30
 80e1ca8:	3a01      	subs	r2, #1
 80e1caa:	f3c2 0208 	ubfx	r2, r2, #0, #9
 80e1cae:	4313      	orrs	r3, r2
 80e1cb0:	6be2      	ldr	r2, [r4, #60]	; 0x3c
 80e1cb2:	3a01      	subs	r2, #1
 80e1cb4:	0612      	lsls	r2, r2, #24
 80e1cb6:	f002 42fe 	and.w	r2, r2, #2130706432	; 0x7f000000
 80e1cba:	4313      	orrs	r3, r2
 80e1cbc:	632b      	str	r3, [r5, #48]	; 0x30
 80e1cbe:	6aeb      	ldr	r3, [r5, #44]	; 0x2c
 80e1cc0:	f023 0301 	bic.w	r3, r3, #1
 80e1cc4:	62eb      	str	r3, [r5, #44]	; 0x2c
 80e1cc6:	6b6b      	ldr	r3, [r5, #52]	; 0x34
 80e1cc8:	6ca2      	ldr	r2, [r4, #72]	; 0x48
 80e1cca:	f423 437f 	bic.w	r3, r3, #65280	; 0xff00
 80e1cce:	f023 03f8 	bic.w	r3, r3, #248	; 0xf8
 80e1cd2:	ea43 03c2 	orr.w	r3, r3, r2, lsl #3
 80e1cd6:	636b      	str	r3, [r5, #52]	; 0x34
 80e1cd8:	6aeb      	ldr	r3, [r5, #44]	; 0x2c
 80e1cda:	6c22      	ldr	r2, [r4, #64]	; 0x40
 80e1cdc:	f023 030c 	bic.w	r3, r3, #12
 80e1ce0:	4313      	orrs	r3, r2
 80e1ce2:	62eb      	str	r3, [r5, #44]	; 0x2c
 80e1ce4:	6aeb      	ldr	r3, [r5, #44]	; 0x2c
 80e1ce6:	6c62      	ldr	r2, [r4, #68]	; 0x44
 80e1ce8:	f023 0302 	bic.w	r3, r3, #2
 80e1cec:	4313      	orrs	r3, r2
 80e1cee:	62eb      	str	r3, [r5, #44]	; 0x2c
 80e1cf0:	6aeb      	ldr	r3, [r5, #44]	; 0x2c
 80e1cf2:	f443 3380 	orr.w	r3, r3, #65536	; 0x10000
 80e1cf6:	62eb      	str	r3, [r5, #44]	; 0x2c
 80e1cf8:	6aeb      	ldr	r3, [r5, #44]	; 0x2c
 80e1cfa:	f443 3300 	orr.w	r3, r3, #131072	; 0x20000
 80e1cfe:	62eb      	str	r3, [r5, #44]	; 0x2c
 80e1d00:	6aeb      	ldr	r3, [r5, #44]	; 0x2c
 80e1d02:	f443 2380 	orr.w	r3, r3, #262144	; 0x40000
 80e1d06:	62eb      	str	r3, [r5, #44]	; 0x2c
 80e1d08:	6aeb      	ldr	r3, [r5, #44]	; 0x2c
 80e1d0a:	f043 0301 	orr.w	r3, r3, #1
 80e1d0e:	62eb      	str	r3, [r5, #44]	; 0x2c
 80e1d10:	682b      	ldr	r3, [r5, #0]
 80e1d12:	f043 7380 	orr.w	r3, r3, #16777216	; 0x1000000
 80e1d16:	602b      	str	r3, [r5, #0]
 80e1d18:	f7fe fffe 	bl	80e0d18 <HAL_GetTick>
 80e1d1c:	4d26      	ldr	r5, [pc, #152]	; (80e1db8 <HAL_RCC_OscConfig+0x4bc>)
 80e1d1e:	4604      	mov	r4, r0
 80e1d20:	682b      	ldr	r3, [r5, #0]
 80e1d22:	019a      	lsls	r2, r3, #6
 80e1d24:	f53f ae44 	bmi.w	80e19b0 <HAL_RCC_OscConfig+0xb4>
 80e1d28:	f7fe fff6 	bl	80e0d18 <HAL_GetTick>
 80e1d2c:	1b00      	subs	r0, r0, r4
 80e1d2e:	2802      	cmp	r0, #2
 80e1d30:	d9f6      	bls.n	80e1d20 <HAL_RCC_OscConfig+0x424>
 80e1d32:	e667      	b.n	80e1a04 <HAL_RCC_OscConfig+0x108>
 80e1d34:	f7fe fff0 	bl	80e0d18 <HAL_GetTick>
 80e1d38:	1b80      	subs	r0, r0, r6
 80e1d3a:	2802      	cmp	r0, #2
 80e1d3c:	d99b      	bls.n	80e1c76 <HAL_RCC_OscConfig+0x37a>
 80e1d3e:	e661      	b.n	80e1a04 <HAL_RCC_OscConfig+0x108>
 80e1d40:	f7fe ffea 	bl	80e0d18 <HAL_GetTick>
 80e1d44:	4604      	mov	r4, r0
 80e1d46:	682b      	ldr	r3, [r5, #0]
 80e1d48:	019b      	lsls	r3, r3, #6
 80e1d4a:	f57f ae31 	bpl.w	80e19b0 <HAL_RCC_OscConfig+0xb4>
 80e1d4e:	f7fe ffe3 	bl	80e0d18 <HAL_GetTick>
 80e1d52:	1b00      	subs	r0, r0, r4
 80e1d54:	2802      	cmp	r0, #2
 80e1d56:	d9f6      	bls.n	80e1d46 <HAL_RCC_OscConfig+0x44a>
 80e1d58:	e654      	b.n	80e1a04 <HAL_RCC_OscConfig+0x108>
 80e1d5a:	2801      	cmp	r0, #1
 80e1d5c:	6aaa      	ldr	r2, [r5, #40]	; 0x28
 80e1d5e:	6b2b      	ldr	r3, [r5, #48]	; 0x30
 80e1d60:	f43f ae51 	beq.w	80e1a06 <HAL_RCC_OscConfig+0x10a>
 80e1d64:	f002 0103 	and.w	r1, r2, #3
 80e1d68:	6aa0      	ldr	r0, [r4, #40]	; 0x28
 80e1d6a:	4281      	cmp	r1, r0
 80e1d6c:	f47f adc9 	bne.w	80e1902 <HAL_RCC_OscConfig+0x6>
 80e1d70:	f3c2 1205 	ubfx	r2, r2, #4, #6
 80e1d74:	6ae1      	ldr	r1, [r4, #44]	; 0x2c
 80e1d76:	428a      	cmp	r2, r1
 80e1d78:	f47f adc3 	bne.w	80e1902 <HAL_RCC_OscConfig+0x6>
 80e1d7c:	6b22      	ldr	r2, [r4, #48]	; 0x30
 80e1d7e:	f3c3 0108 	ubfx	r1, r3, #0, #9
 80e1d82:	3a01      	subs	r2, #1
 80e1d84:	4291      	cmp	r1, r2
 80e1d86:	f47f adbc 	bne.w	80e1902 <HAL_RCC_OscConfig+0x6>
 80e1d8a:	6b62      	ldr	r2, [r4, #52]	; 0x34
 80e1d8c:	f3c3 2146 	ubfx	r1, r3, #9, #7
 80e1d90:	3a01      	subs	r2, #1
 80e1d92:	4291      	cmp	r1, r2
 80e1d94:	f47f adb5 	bne.w	80e1902 <HAL_RCC_OscConfig+0x6>
 80e1d98:	6ba2      	ldr	r2, [r4, #56]	; 0x38
 80e1d9a:	f3c3 4106 	ubfx	r1, r3, #16, #7
 80e1d9e:	3a01      	subs	r2, #1
 80e1da0:	4291      	cmp	r1, r2
 80e1da2:	f47f adae 	bne.w	80e1902 <HAL_RCC_OscConfig+0x6>
 80e1da6:	6be0      	ldr	r0, [r4, #60]	; 0x3c
 80e1da8:	f3c3 6306 	ubfx	r3, r3, #24, #7
 80e1dac:	3801      	subs	r0, #1
 80e1dae:	1a18      	subs	r0, r3, r0
 80e1db0:	bf18      	it	ne
 80e1db2:	2001      	movne	r0, #1
 80e1db4:	e627      	b.n	80e1a06 <HAL_RCC_OscConfig+0x10a>
 80e1db6:	bf00      	nop
 80e1db8:	58024400 	.word	0x58024400

080e1dbc <HAL_RCC_GetSysClockFreq>:
 80e1dbc:	4b48      	ldr	r3, [pc, #288]	; (80e1ee0 <HAL_RCC_GetSysClockFreq+0x124>)
 80e1dbe:	691a      	ldr	r2, [r3, #16]
 80e1dc0:	f002 0238 	and.w	r2, r2, #56	; 0x38
 80e1dc4:	2a10      	cmp	r2, #16
 80e1dc6:	b530      	push	{r4, r5, lr}
 80e1dc8:	f000 8086 	beq.w	80e1ed8 <HAL_RCC_GetSysClockFreq+0x11c>
 80e1dcc:	2a18      	cmp	r2, #24
 80e1dce:	d00c      	beq.n	80e1dea <HAL_RCC_GetSysClockFreq+0x2e>
 80e1dd0:	2a00      	cmp	r2, #0
 80e1dd2:	f040 8083 	bne.w	80e1edc <HAL_RCC_GetSysClockFreq+0x120>
 80e1dd6:	681a      	ldr	r2, [r3, #0]
 80e1dd8:	4842      	ldr	r0, [pc, #264]	; (80e1ee4 <HAL_RCC_GetSysClockFreq+0x128>)
 80e1dda:	f012 0f20 	tst.w	r2, #32
 80e1dde:	d003      	beq.n	80e1de8 <HAL_RCC_GetSysClockFreq+0x2c>
 80e1de0:	681b      	ldr	r3, [r3, #0]
 80e1de2:	f3c3 03c1 	ubfx	r3, r3, #3, #2
 80e1de6:	40d8      	lsrs	r0, r3
 80e1de8:	bd30      	pop	{r4, r5, pc}
 80e1dea:	6a99      	ldr	r1, [r3, #40]	; 0x28
 80e1dec:	6a9d      	ldr	r5, [r3, #40]	; 0x28
 80e1dee:	6adc      	ldr	r4, [r3, #44]	; 0x2c
 80e1df0:	f415 7f7c 	tst.w	r5, #1008	; 0x3f0
 80e1df4:	f3c5 1005 	ubfx	r0, r5, #4, #6
 80e1df8:	6b5a      	ldr	r2, [r3, #52]	; 0x34
 80e1dfa:	d0f5      	beq.n	80e1de8 <HAL_RCC_GetSysClockFreq+0x2c>
 80e1dfc:	f3c2 02cc 	ubfx	r2, r2, #3, #13
 80e1e00:	f004 0401 	and.w	r4, r4, #1
 80e1e04:	ee07 0a90 	vmov	s15, r0
 80e1e08:	f001 0103 	and.w	r1, r1, #3
 80e1e0c:	4362      	muls	r2, r4
 80e1e0e:	eeb7 6a00 	vmov.f32	s12, #112	; 0x3f800000  1.0
 80e1e12:	eef8 6ae7 	vcvt.f32.s32	s13, s15
 80e1e16:	2901      	cmp	r1, #1
 80e1e18:	ee07 2a90 	vmov	s15, r2
 80e1e1c:	eefa 7ae9 	vcvt.f32.s32	s15, s15, #13
 80e1e20:	d04c      	beq.n	80e1ebc <HAL_RCC_GetSysClockFreq+0x100>
 80e1e22:	2902      	cmp	r1, #2
 80e1e24:	d03c      	beq.n	80e1ea0 <HAL_RCC_GetSysClockFreq+0xe4>
 80e1e26:	2900      	cmp	r1, #0
 80e1e28:	d148      	bne.n	80e1ebc <HAL_RCC_GetSysClockFreq+0x100>
 80e1e2a:	681a      	ldr	r2, [r3, #0]
 80e1e2c:	0692      	lsls	r2, r2, #26
 80e1e2e:	d527      	bpl.n	80e1e80 <HAL_RCC_GetSysClockFreq+0xc4>
 80e1e30:	6819      	ldr	r1, [r3, #0]
 80e1e32:	4a2c      	ldr	r2, [pc, #176]	; (80e1ee4 <HAL_RCC_GetSysClockFreq+0x128>)
 80e1e34:	f3c1 01c1 	ubfx	r1, r1, #3, #2
 80e1e38:	6b1b      	ldr	r3, [r3, #48]	; 0x30
 80e1e3a:	40ca      	lsrs	r2, r1
 80e1e3c:	f3c3 0308 	ubfx	r3, r3, #0, #9
 80e1e40:	ee07 2a10 	vmov	s14, r2
 80e1e44:	eef8 5ac7 	vcvt.f32.s32	s11, s14
 80e1e48:	ee85 7aa6 	vdiv.f32	s14, s11, s13
 80e1e4c:	ee06 3a90 	vmov	s13, r3
 80e1e50:	eef8 6ae6 	vcvt.f32.s32	s13, s13
 80e1e54:	ee76 7aa7 	vadd.f32	s15, s13, s15
 80e1e58:	ee77 7a86 	vadd.f32	s15, s15, s12
 80e1e5c:	4b20      	ldr	r3, [pc, #128]	; (80e1ee0 <HAL_RCC_GetSysClockFreq+0x124>)
 80e1e5e:	ee67 7a87 	vmul.f32	s15, s15, s14
 80e1e62:	6b1b      	ldr	r3, [r3, #48]	; 0x30
 80e1e64:	f3c3 2346 	ubfx	r3, r3, #9, #7
 80e1e68:	3301      	adds	r3, #1
 80e1e6a:	ee07 3a10 	vmov	s14, r3
 80e1e6e:	eef8 6ac7 	vcvt.f32.s32	s13, s14
 80e1e72:	ee87 7aa6 	vdiv.f32	s14, s15, s13
 80e1e76:	eefc 7ac7 	vcvt.u32.f32	s15, s14
 80e1e7a:	ee17 0a90 	vmov	r0, s15
 80e1e7e:	e7b3      	b.n	80e1de8 <HAL_RCC_GetSysClockFreq+0x2c>
 80e1e80:	6b1b      	ldr	r3, [r3, #48]	; 0x30
 80e1e82:	f3c3 0308 	ubfx	r3, r3, #0, #9
 80e1e86:	ee07 3a10 	vmov	s14, r3
 80e1e8a:	eeb8 7ac7 	vcvt.f32.s32	s14, s14
 80e1e8e:	ee77 7a27 	vadd.f32	s15, s14, s15
 80e1e92:	ee77 7a86 	vadd.f32	s15, s15, s12
 80e1e96:	ed9f 6a14 	vldr	s12, [pc, #80]	; 80e1ee8 <HAL_RCC_GetSysClockFreq+0x12c>
 80e1e9a:	ee86 7a26 	vdiv.f32	s14, s12, s13
 80e1e9e:	e7dd      	b.n	80e1e5c <HAL_RCC_GetSysClockFreq+0xa0>
 80e1ea0:	6b1b      	ldr	r3, [r3, #48]	; 0x30
 80e1ea2:	f3c3 0308 	ubfx	r3, r3, #0, #9
 80e1ea6:	ee07 3a10 	vmov	s14, r3
 80e1eaa:	eeb8 7ac7 	vcvt.f32.s32	s14, s14
 80e1eae:	ee77 7a27 	vadd.f32	s15, s14, s15
 80e1eb2:	ee77 7a86 	vadd.f32	s15, s15, s12
 80e1eb6:	ed9f 6a0d 	vldr	s12, [pc, #52]	; 80e1eec <HAL_RCC_GetSysClockFreq+0x130>
 80e1eba:	e7ee      	b.n	80e1e9a <HAL_RCC_GetSysClockFreq+0xde>
 80e1ebc:	6b1b      	ldr	r3, [r3, #48]	; 0x30
 80e1ebe:	f3c3 0308 	ubfx	r3, r3, #0, #9
 80e1ec2:	ee07 3a10 	vmov	s14, r3
 80e1ec6:	eeb8 7ac7 	vcvt.f32.s32	s14, s14
 80e1eca:	ee77 7a27 	vadd.f32	s15, s14, s15
 80e1ece:	ee77 7a86 	vadd.f32	s15, s15, s12
 80e1ed2:	ed9f 6a07 	vldr	s12, [pc, #28]	; 80e1ef0 <HAL_RCC_GetSysClockFreq+0x134>
 80e1ed6:	e7e0      	b.n	80e1e9a <HAL_RCC_GetSysClockFreq+0xde>
 80e1ed8:	4806      	ldr	r0, [pc, #24]	; (80e1ef4 <HAL_RCC_GetSysClockFreq+0x138>)
 80e1eda:	e785      	b.n	80e1de8 <HAL_RCC_GetSysClockFreq+0x2c>
 80e1edc:	4806      	ldr	r0, [pc, #24]	; (80e1ef8 <HAL_RCC_GetSysClockFreq+0x13c>)
 80e1ede:	e783      	b.n	80e1de8 <HAL_RCC_GetSysClockFreq+0x2c>
 80e1ee0:	58024400 	.word	0x58024400
 80e1ee4:	03d09000 	.word	0x03d09000
 80e1ee8:	4c742400 	.word	0x4c742400
 80e1eec:	4bbebc20 	.word	0x4bbebc20
 80e1ef0:	4a742400 	.word	0x4a742400
 80e1ef4:	017d7840 	.word	0x017d7840
 80e1ef8:	003d0900 	.word	0x003d0900

080e1efc <HAL_RCC_ClockConfig>:
 80e1efc:	e92d 41f0 	stmdb	sp!, {r4, r5, r6, r7, r8, lr}
 80e1f00:	460d      	mov	r5, r1
 80e1f02:	4604      	mov	r4, r0
 80e1f04:	b910      	cbnz	r0, 80e1f0c <HAL_RCC_ClockConfig+0x10>
 80e1f06:	2001      	movs	r0, #1
 80e1f08:	e8bd 81f0 	ldmia.w	sp!, {r4, r5, r6, r7, r8, pc}
 80e1f0c:	4a88      	ldr	r2, [pc, #544]	; (80e2130 <HAL_RCC_ClockConfig+0x234>)
 80e1f0e:	6813      	ldr	r3, [r2, #0]
 80e1f10:	f003 030f 	and.w	r3, r3, #15
 80e1f14:	428b      	cmp	r3, r1
 80e1f16:	f0c0 8093 	bcc.w	80e2040 <HAL_RCC_ClockConfig+0x144>
 80e1f1a:	6823      	ldr	r3, [r4, #0]
 80e1f1c:	075f      	lsls	r7, r3, #29
 80e1f1e:	f100 809b 	bmi.w	80e2058 <HAL_RCC_ClockConfig+0x15c>
 80e1f22:	071e      	lsls	r6, r3, #28
 80e1f24:	d50b      	bpl.n	80e1f3e <HAL_RCC_ClockConfig+0x42>
 80e1f26:	4983      	ldr	r1, [pc, #524]	; (80e2134 <HAL_RCC_ClockConfig+0x238>)
 80e1f28:	6966      	ldr	r6, [r4, #20]
 80e1f2a:	69c8      	ldr	r0, [r1, #28]
 80e1f2c:	f000 0070 	and.w	r0, r0, #112	; 0x70
 80e1f30:	4286      	cmp	r6, r0
 80e1f32:	d904      	bls.n	80e1f3e <HAL_RCC_ClockConfig+0x42>
 80e1f34:	69ca      	ldr	r2, [r1, #28]
 80e1f36:	f022 0270 	bic.w	r2, r2, #112	; 0x70
 80e1f3a:	4332      	orrs	r2, r6
 80e1f3c:	61ca      	str	r2, [r1, #28]
 80e1f3e:	06d8      	lsls	r0, r3, #27
 80e1f40:	d50b      	bpl.n	80e1f5a <HAL_RCC_ClockConfig+0x5e>
 80e1f42:	497c      	ldr	r1, [pc, #496]	; (80e2134 <HAL_RCC_ClockConfig+0x238>)
 80e1f44:	69a6      	ldr	r6, [r4, #24]
 80e1f46:	69c8      	ldr	r0, [r1, #28]
 80e1f48:	f400 60e0 	and.w	r0, r0, #1792	; 0x700
 80e1f4c:	4286      	cmp	r6, r0
 80e1f4e:	d904      	bls.n	80e1f5a <HAL_RCC_ClockConfig+0x5e>
 80e1f50:	69ca      	ldr	r2, [r1, #28]
 80e1f52:	f422 62e0 	bic.w	r2, r2, #1792	; 0x700
 80e1f56:	4332      	orrs	r2, r6
 80e1f58:	61ca      	str	r2, [r1, #28]
 80e1f5a:	0699      	lsls	r1, r3, #26
 80e1f5c:	d50b      	bpl.n	80e1f76 <HAL_RCC_ClockConfig+0x7a>
 80e1f5e:	4975      	ldr	r1, [pc, #468]	; (80e2134 <HAL_RCC_ClockConfig+0x238>)
 80e1f60:	69e6      	ldr	r6, [r4, #28]
 80e1f62:	6a08      	ldr	r0, [r1, #32]
 80e1f64:	f000 0070 	and.w	r0, r0, #112	; 0x70
 80e1f68:	4286      	cmp	r6, r0
 80e1f6a:	d904      	bls.n	80e1f76 <HAL_RCC_ClockConfig+0x7a>
 80e1f6c:	6a0a      	ldr	r2, [r1, #32]
 80e1f6e:	f022 0270 	bic.w	r2, r2, #112	; 0x70
 80e1f72:	4332      	orrs	r2, r6
 80e1f74:	620a      	str	r2, [r1, #32]
 80e1f76:	079a      	lsls	r2, r3, #30
 80e1f78:	d50b      	bpl.n	80e1f92 <HAL_RCC_ClockConfig+0x96>
 80e1f7a:	496e      	ldr	r1, [pc, #440]	; (80e2134 <HAL_RCC_ClockConfig+0x238>)
 80e1f7c:	68e6      	ldr	r6, [r4, #12]
 80e1f7e:	6988      	ldr	r0, [r1, #24]
 80e1f80:	f000 000f 	and.w	r0, r0, #15
 80e1f84:	4286      	cmp	r6, r0
 80e1f86:	d904      	bls.n	80e1f92 <HAL_RCC_ClockConfig+0x96>
 80e1f88:	698a      	ldr	r2, [r1, #24]
 80e1f8a:	f022 020f 	bic.w	r2, r2, #15
 80e1f8e:	4332      	orrs	r2, r6
 80e1f90:	618a      	str	r2, [r1, #24]
 80e1f92:	07df      	lsls	r7, r3, #31
 80e1f94:	d46e      	bmi.n	80e2074 <HAL_RCC_ClockConfig+0x178>
 80e1f96:	6823      	ldr	r3, [r4, #0]
 80e1f98:	079e      	lsls	r6, r3, #30
 80e1f9a:	f100 80a1 	bmi.w	80e20e0 <HAL_RCC_ClockConfig+0x1e4>
 80e1f9e:	4964      	ldr	r1, [pc, #400]	; (80e2130 <HAL_RCC_ClockConfig+0x234>)
 80e1fa0:	680a      	ldr	r2, [r1, #0]
 80e1fa2:	f002 020f 	and.w	r2, r2, #15
 80e1fa6:	42aa      	cmp	r2, r5
 80e1fa8:	f200 80a8 	bhi.w	80e20fc <HAL_RCC_ClockConfig+0x200>
 80e1fac:	0758      	lsls	r0, r3, #29
 80e1fae:	f100 80b1 	bmi.w	80e2114 <HAL_RCC_ClockConfig+0x218>
 80e1fb2:	0719      	lsls	r1, r3, #28
 80e1fb4:	d50b      	bpl.n	80e1fce <HAL_RCC_ClockConfig+0xd2>
 80e1fb6:	495f      	ldr	r1, [pc, #380]	; (80e2134 <HAL_RCC_ClockConfig+0x238>)
 80e1fb8:	6965      	ldr	r5, [r4, #20]
 80e1fba:	69c8      	ldr	r0, [r1, #28]
 80e1fbc:	f000 0070 	and.w	r0, r0, #112	; 0x70
 80e1fc0:	4285      	cmp	r5, r0
 80e1fc2:	d204      	bcs.n	80e1fce <HAL_RCC_ClockConfig+0xd2>
 80e1fc4:	69ca      	ldr	r2, [r1, #28]
 80e1fc6:	f022 0270 	bic.w	r2, r2, #112	; 0x70
 80e1fca:	432a      	orrs	r2, r5
 80e1fcc:	61ca      	str	r2, [r1, #28]
 80e1fce:	06da      	lsls	r2, r3, #27
 80e1fd0:	d50b      	bpl.n	80e1fea <HAL_RCC_ClockConfig+0xee>
 80e1fd2:	4958      	ldr	r1, [pc, #352]	; (80e2134 <HAL_RCC_ClockConfig+0x238>)
 80e1fd4:	69a5      	ldr	r5, [r4, #24]
 80e1fd6:	69c8      	ldr	r0, [r1, #28]
 80e1fd8:	f400 60e0 	and.w	r0, r0, #1792	; 0x700
 80e1fdc:	4285      	cmp	r5, r0
 80e1fde:	d204      	bcs.n	80e1fea <HAL_RCC_ClockConfig+0xee>
 80e1fe0:	69ca      	ldr	r2, [r1, #28]
 80e1fe2:	f422 62e0 	bic.w	r2, r2, #1792	; 0x700
 80e1fe6:	432a      	orrs	r2, r5
 80e1fe8:	61ca      	str	r2, [r1, #28]
 80e1fea:	069b      	lsls	r3, r3, #26
 80e1fec:	d50b      	bpl.n	80e2006 <HAL_RCC_ClockConfig+0x10a>
 80e1fee:	4a51      	ldr	r2, [pc, #324]	; (80e2134 <HAL_RCC_ClockConfig+0x238>)
 80e1ff0:	69e0      	ldr	r0, [r4, #28]
 80e1ff2:	6a11      	ldr	r1, [r2, #32]
 80e1ff4:	f001 0170 	and.w	r1, r1, #112	; 0x70
 80e1ff8:	4288      	cmp	r0, r1
 80e1ffa:	d204      	bcs.n	80e2006 <HAL_RCC_ClockConfig+0x10a>
 80e1ffc:	6a13      	ldr	r3, [r2, #32]
 80e1ffe:	f023 0370 	bic.w	r3, r3, #112	; 0x70
 80e2002:	4303      	orrs	r3, r0
 80e2004:	6213      	str	r3, [r2, #32]
 80e2006:	f7ff fed9 	bl	80e1dbc <HAL_RCC_GetSysClockFreq>
 80e200a:	494a      	ldr	r1, [pc, #296]	; (80e2134 <HAL_RCC_ClockConfig+0x238>)
 80e200c:	4a4a      	ldr	r2, [pc, #296]	; (80e2138 <HAL_RCC_ClockConfig+0x23c>)
 80e200e:	698b      	ldr	r3, [r1, #24]
 80e2010:	f3c3 2303 	ubfx	r3, r3, #8, #4
 80e2014:	5cd3      	ldrb	r3, [r2, r3]
 80e2016:	f003 031f 	and.w	r3, r3, #31
 80e201a:	40d8      	lsrs	r0, r3
 80e201c:	698b      	ldr	r3, [r1, #24]
 80e201e:	f003 030f 	and.w	r3, r3, #15
 80e2022:	5cd3      	ldrb	r3, [r2, r3]
 80e2024:	4a45      	ldr	r2, [pc, #276]	; (80e213c <HAL_RCC_ClockConfig+0x240>)
 80e2026:	f003 031f 	and.w	r3, r3, #31
 80e202a:	fa20 f303 	lsr.w	r3, r0, r3
 80e202e:	6013      	str	r3, [r2, #0]
 80e2030:	4b43      	ldr	r3, [pc, #268]	; (80e2140 <HAL_RCC_ClockConfig+0x244>)
 80e2032:	6018      	str	r0, [r3, #0]
 80e2034:	4b43      	ldr	r3, [pc, #268]	; (80e2144 <HAL_RCC_ClockConfig+0x248>)
 80e2036:	e8bd 41f0 	ldmia.w	sp!, {r4, r5, r6, r7, r8, lr}
 80e203a:	6818      	ldr	r0, [r3, #0]
 80e203c:	f7fe be0c 	b.w	80e0c58 <HAL_InitTick>
 80e2040:	6813      	ldr	r3, [r2, #0]
 80e2042:	f023 030f 	bic.w	r3, r3, #15
 80e2046:	430b      	orrs	r3, r1
 80e2048:	6013      	str	r3, [r2, #0]
 80e204a:	6813      	ldr	r3, [r2, #0]
 80e204c:	f003 030f 	and.w	r3, r3, #15
 80e2050:	428b      	cmp	r3, r1
 80e2052:	f47f af58 	bne.w	80e1f06 <HAL_RCC_ClockConfig+0xa>
 80e2056:	e760      	b.n	80e1f1a <HAL_RCC_ClockConfig+0x1e>
 80e2058:	4936      	ldr	r1, [pc, #216]	; (80e2134 <HAL_RCC_ClockConfig+0x238>)
 80e205a:	6926      	ldr	r6, [r4, #16]
 80e205c:	6988      	ldr	r0, [r1, #24]
 80e205e:	f000 0070 	and.w	r0, r0, #112	; 0x70
 80e2062:	4286      	cmp	r6, r0
 80e2064:	f67f af5d 	bls.w	80e1f22 <HAL_RCC_ClockConfig+0x26>
 80e2068:	698a      	ldr	r2, [r1, #24]
 80e206a:	f022 0270 	bic.w	r2, r2, #112	; 0x70
 80e206e:	4332      	orrs	r2, r6
 80e2070:	618a      	str	r2, [r1, #24]
 80e2072:	e756      	b.n	80e1f22 <HAL_RCC_ClockConfig+0x26>
 80e2074:	4b2f      	ldr	r3, [pc, #188]	; (80e2134 <HAL_RCC_ClockConfig+0x238>)
 80e2076:	68a1      	ldr	r1, [r4, #8]
 80e2078:	699a      	ldr	r2, [r3, #24]
 80e207a:	f422 6270 	bic.w	r2, r2, #3840	; 0xf00
 80e207e:	430a      	orrs	r2, r1
 80e2080:	619a      	str	r2, [r3, #24]
 80e2082:	6862      	ldr	r2, [r4, #4]
 80e2084:	681b      	ldr	r3, [r3, #0]
 80e2086:	2a02      	cmp	r2, #2
 80e2088:	d11d      	bne.n	80e20c6 <HAL_RCC_ClockConfig+0x1ca>
 80e208a:	f413 3f00 	tst.w	r3, #131072	; 0x20000
 80e208e:	f43f af3a 	beq.w	80e1f06 <HAL_RCC_ClockConfig+0xa>
 80e2092:	4e28      	ldr	r6, [pc, #160]	; (80e2134 <HAL_RCC_ClockConfig+0x238>)
 80e2094:	f241 3888 	movw	r8, #5000	; 0x1388
 80e2098:	6933      	ldr	r3, [r6, #16]
 80e209a:	f023 0307 	bic.w	r3, r3, #7
 80e209e:	4313      	orrs	r3, r2
 80e20a0:	6133      	str	r3, [r6, #16]
 80e20a2:	f7fe fe39 	bl	80e0d18 <HAL_GetTick>
 80e20a6:	4607      	mov	r7, r0
 80e20a8:	6933      	ldr	r3, [r6, #16]
 80e20aa:	6862      	ldr	r2, [r4, #4]
 80e20ac:	f003 0338 	and.w	r3, r3, #56	; 0x38
 80e20b0:	ebb3 0fc2 	cmp.w	r3, r2, lsl #3
 80e20b4:	f43f af6f 	beq.w	80e1f96 <HAL_RCC_ClockConfig+0x9a>
 80e20b8:	f7fe fe2e 	bl	80e0d18 <HAL_GetTick>
 80e20bc:	1bc0      	subs	r0, r0, r7
 80e20be:	4540      	cmp	r0, r8
 80e20c0:	d9f2      	bls.n	80e20a8 <HAL_RCC_ClockConfig+0x1ac>
 80e20c2:	2003      	movs	r0, #3
 80e20c4:	e720      	b.n	80e1f08 <HAL_RCC_ClockConfig+0xc>
 80e20c6:	2a03      	cmp	r2, #3
 80e20c8:	d102      	bne.n	80e20d0 <HAL_RCC_ClockConfig+0x1d4>
 80e20ca:	f013 7f00 	tst.w	r3, #33554432	; 0x2000000
 80e20ce:	e7de      	b.n	80e208e <HAL_RCC_ClockConfig+0x192>
 80e20d0:	2a01      	cmp	r2, #1
 80e20d2:	d102      	bne.n	80e20da <HAL_RCC_ClockConfig+0x1de>
 80e20d4:	f413 7f80 	tst.w	r3, #256	; 0x100
 80e20d8:	e7d9      	b.n	80e208e <HAL_RCC_ClockConfig+0x192>
 80e20da:	f013 0f04 	tst.w	r3, #4
 80e20de:	e7d6      	b.n	80e208e <HAL_RCC_ClockConfig+0x192>
 80e20e0:	4914      	ldr	r1, [pc, #80]	; (80e2134 <HAL_RCC_ClockConfig+0x238>)
 80e20e2:	68e6      	ldr	r6, [r4, #12]
 80e20e4:	6988      	ldr	r0, [r1, #24]
 80e20e6:	f000 000f 	and.w	r0, r0, #15
 80e20ea:	4286      	cmp	r6, r0
 80e20ec:	f4bf af57 	bcs.w	80e1f9e <HAL_RCC_ClockConfig+0xa2>
 80e20f0:	698a      	ldr	r2, [r1, #24]
 80e20f2:	f022 020f 	bic.w	r2, r2, #15
 80e20f6:	4332      	orrs	r2, r6
 80e20f8:	618a      	str	r2, [r1, #24]
 80e20fa:	e750      	b.n	80e1f9e <HAL_RCC_ClockConfig+0xa2>
 80e20fc:	680a      	ldr	r2, [r1, #0]
 80e20fe:	f022 020f 	bic.w	r2, r2, #15
 80e2102:	432a      	orrs	r2, r5
 80e2104:	600a      	str	r2, [r1, #0]
 80e2106:	680a      	ldr	r2, [r1, #0]
 80e2108:	f002 020f 	and.w	r2, r2, #15
 80e210c:	42aa      	cmp	r2, r5
 80e210e:	f47f aefa 	bne.w	80e1f06 <HAL_RCC_ClockConfig+0xa>
 80e2112:	e74b      	b.n	80e1fac <HAL_RCC_ClockConfig+0xb0>
 80e2114:	4907      	ldr	r1, [pc, #28]	; (80e2134 <HAL_RCC_ClockConfig+0x238>)
 80e2116:	6925      	ldr	r5, [r4, #16]
 80e2118:	6988      	ldr	r0, [r1, #24]
 80e211a:	f000 0070 	and.w	r0, r0, #112	; 0x70
 80e211e:	4285      	cmp	r5, r0
 80e2120:	f4bf af47 	bcs.w	80e1fb2 <HAL_RCC_ClockConfig+0xb6>
 80e2124:	698a      	ldr	r2, [r1, #24]
 80e2126:	f022 0270 	bic.w	r2, r2, #112	; 0x70
 80e212a:	432a      	orrs	r2, r5
 80e212c:	618a      	str	r2, [r1, #24]
 80e212e:	e740      	b.n	80e1fb2 <HAL_RCC_ClockConfig+0xb6>
 80e2130:	52002000 	.word	0x52002000
 80e2134:	58024400 	.word	0x58024400
 80e2138:	080e30e8 	.word	0x080e30e8
 80e213c:	24000004 	.word	0x24000004
 80e2140:	24000000 	.word	0x24000000
 80e2144:	2400000c 	.word	0x2400000c

080e2148 <RCCEx_PLL2_Config>:
 80e2148:	b5f8      	push	{r3, r4, r5, r6, r7, lr}
 80e214a:	4c3a      	ldr	r4, [pc, #232]	; (80e2234 <RCCEx_PLL2_Config+0xec>)
 80e214c:	4606      	mov	r6, r0
 80e214e:	460d      	mov	r5, r1
 80e2150:	6aa3      	ldr	r3, [r4, #40]	; 0x28
 80e2152:	f003 0303 	and.w	r3, r3, #3
 80e2156:	2b03      	cmp	r3, #3
 80e2158:	d069      	beq.n	80e222e <RCCEx_PLL2_Config+0xe6>
 80e215a:	6823      	ldr	r3, [r4, #0]
 80e215c:	f023 6380 	bic.w	r3, r3, #67108864	; 0x4000000
 80e2160:	6023      	str	r3, [r4, #0]
 80e2162:	f7fe fdd9 	bl	80e0d18 <HAL_GetTick>
 80e2166:	4607      	mov	r7, r0
 80e2168:	6823      	ldr	r3, [r4, #0]
 80e216a:	011a      	lsls	r2, r3, #4
 80e216c:	d44b      	bmi.n	80e2206 <RCCEx_PLL2_Config+0xbe>
 80e216e:	6aa3      	ldr	r3, [r4, #40]	; 0x28
 80e2170:	6832      	ldr	r2, [r6, #0]
 80e2172:	f423 337c 	bic.w	r3, r3, #258048	; 0x3f000
 80e2176:	ea43 3302 	orr.w	r3, r3, r2, lsl #12
 80e217a:	62a3      	str	r3, [r4, #40]	; 0x28
 80e217c:	68b3      	ldr	r3, [r6, #8]
 80e217e:	68f2      	ldr	r2, [r6, #12]
 80e2180:	3b01      	subs	r3, #1
 80e2182:	3a01      	subs	r2, #1
 80e2184:	025b      	lsls	r3, r3, #9
 80e2186:	0412      	lsls	r2, r2, #16
 80e2188:	b29b      	uxth	r3, r3
 80e218a:	f402 02fe 	and.w	r2, r2, #8323072	; 0x7f0000
 80e218e:	4313      	orrs	r3, r2
 80e2190:	6872      	ldr	r2, [r6, #4]
 80e2192:	3a01      	subs	r2, #1
 80e2194:	f3c2 0208 	ubfx	r2, r2, #0, #9
 80e2198:	4313      	orrs	r3, r2
 80e219a:	6932      	ldr	r2, [r6, #16]
 80e219c:	3a01      	subs	r2, #1
 80e219e:	0612      	lsls	r2, r2, #24
 80e21a0:	f002 42fe 	and.w	r2, r2, #2130706432	; 0x7f000000
 80e21a4:	4313      	orrs	r3, r2
 80e21a6:	63a3      	str	r3, [r4, #56]	; 0x38
 80e21a8:	6ae3      	ldr	r3, [r4, #44]	; 0x2c
 80e21aa:	6972      	ldr	r2, [r6, #20]
 80e21ac:	f023 03c0 	bic.w	r3, r3, #192	; 0xc0
 80e21b0:	4313      	orrs	r3, r2
 80e21b2:	62e3      	str	r3, [r4, #44]	; 0x2c
 80e21b4:	6ae3      	ldr	r3, [r4, #44]	; 0x2c
 80e21b6:	69b2      	ldr	r2, [r6, #24]
 80e21b8:	f023 0320 	bic.w	r3, r3, #32
 80e21bc:	4313      	orrs	r3, r2
 80e21be:	62e3      	str	r3, [r4, #44]	; 0x2c
 80e21c0:	6ae3      	ldr	r3, [r4, #44]	; 0x2c
 80e21c2:	f023 0310 	bic.w	r3, r3, #16
 80e21c6:	62e3      	str	r3, [r4, #44]	; 0x2c
 80e21c8:	6be3      	ldr	r3, [r4, #60]	; 0x3c
 80e21ca:	69f2      	ldr	r2, [r6, #28]
 80e21cc:	f423 437f 	bic.w	r3, r3, #65280	; 0xff00
 80e21d0:	f023 03f8 	bic.w	r3, r3, #248	; 0xf8
 80e21d4:	ea43 03c2 	orr.w	r3, r3, r2, lsl #3
 80e21d8:	63e3      	str	r3, [r4, #60]	; 0x3c
 80e21da:	6ae3      	ldr	r3, [r4, #44]	; 0x2c
 80e21dc:	f043 0310 	orr.w	r3, r3, #16
 80e21e0:	62e3      	str	r3, [r4, #44]	; 0x2c
 80e21e2:	6ae3      	ldr	r3, [r4, #44]	; 0x2c
 80e21e4:	b9b5      	cbnz	r5, 80e2214 <RCCEx_PLL2_Config+0xcc>
 80e21e6:	f443 2300 	orr.w	r3, r3, #524288	; 0x80000
 80e21ea:	62e3      	str	r3, [r4, #44]	; 0x2c
 80e21ec:	4c11      	ldr	r4, [pc, #68]	; (80e2234 <RCCEx_PLL2_Config+0xec>)
 80e21ee:	6823      	ldr	r3, [r4, #0]
 80e21f0:	f043 6380 	orr.w	r3, r3, #67108864	; 0x4000000
 80e21f4:	6023      	str	r3, [r4, #0]
 80e21f6:	f7fe fd8f 	bl	80e0d18 <HAL_GetTick>
 80e21fa:	4605      	mov	r5, r0
 80e21fc:	6823      	ldr	r3, [r4, #0]
 80e21fe:	011b      	lsls	r3, r3, #4
 80e2200:	d50f      	bpl.n	80e2222 <RCCEx_PLL2_Config+0xda>
 80e2202:	2000      	movs	r0, #0
 80e2204:	e005      	b.n	80e2212 <RCCEx_PLL2_Config+0xca>
 80e2206:	f7fe fd87 	bl	80e0d18 <HAL_GetTick>
 80e220a:	1bc0      	subs	r0, r0, r7
 80e220c:	2802      	cmp	r0, #2
 80e220e:	d9ab      	bls.n	80e2168 <RCCEx_PLL2_Config+0x20>
 80e2210:	2003      	movs	r0, #3
 80e2212:	bdf8      	pop	{r3, r4, r5, r6, r7, pc}
 80e2214:	2d01      	cmp	r5, #1
 80e2216:	bf0c      	ite	eq
 80e2218:	f443 1380 	orreq.w	r3, r3, #1048576	; 0x100000
 80e221c:	f443 1300 	orrne.w	r3, r3, #2097152	; 0x200000
 80e2220:	e7e3      	b.n	80e21ea <RCCEx_PLL2_Config+0xa2>
 80e2222:	f7fe fd79 	bl	80e0d18 <HAL_GetTick>
 80e2226:	1b40      	subs	r0, r0, r5
 80e2228:	2802      	cmp	r0, #2
 80e222a:	d9e7      	bls.n	80e21fc <RCCEx_PLL2_Config+0xb4>
 80e222c:	e7f0      	b.n	80e2210 <RCCEx_PLL2_Config+0xc8>
 80e222e:	2001      	movs	r0, #1
 80e2230:	e7ef      	b.n	80e2212 <RCCEx_PLL2_Config+0xca>
 80e2232:	bf00      	nop
 80e2234:	58024400 	.word	0x58024400

080e2238 <RCCEx_PLL3_Config>:
 80e2238:	b5f8      	push	{r3, r4, r5, r6, r7, lr}
 80e223a:	4c3a      	ldr	r4, [pc, #232]	; (80e2324 <RCCEx_PLL3_Config+0xec>)
 80e223c:	4606      	mov	r6, r0
 80e223e:	460d      	mov	r5, r1
 80e2240:	6aa3      	ldr	r3, [r4, #40]	; 0x28
 80e2242:	f003 0303 	and.w	r3, r3, #3
 80e2246:	2b03      	cmp	r3, #3
 80e2248:	d069      	beq.n	80e231e <RCCEx_PLL3_Config+0xe6>
 80e224a:	6823      	ldr	r3, [r4, #0]
 80e224c:	f023 5380 	bic.w	r3, r3, #268435456	; 0x10000000
 80e2250:	6023      	str	r3, [r4, #0]
 80e2252:	f7fe fd61 	bl	80e0d18 <HAL_GetTick>
 80e2256:	4607      	mov	r7, r0
 80e2258:	6823      	ldr	r3, [r4, #0]
 80e225a:	009a      	lsls	r2, r3, #2
 80e225c:	d44b      	bmi.n	80e22f6 <RCCEx_PLL3_Config+0xbe>
 80e225e:	6aa3      	ldr	r3, [r4, #40]	; 0x28
 80e2260:	6832      	ldr	r2, [r6, #0]
 80e2262:	f023 737c 	bic.w	r3, r3, #66060288	; 0x3f00000
 80e2266:	ea43 5302 	orr.w	r3, r3, r2, lsl #20
 80e226a:	62a3      	str	r3, [r4, #40]	; 0x28
 80e226c:	68b3      	ldr	r3, [r6, #8]
 80e226e:	68f2      	ldr	r2, [r6, #12]
 80e2270:	3b01      	subs	r3, #1
 80e2272:	3a01      	subs	r2, #1
 80e2274:	025b      	lsls	r3, r3, #9
 80e2276:	0412      	lsls	r2, r2, #16
 80e2278:	b29b      	uxth	r3, r3
 80e227a:	f402 02fe 	and.w	r2, r2, #8323072	; 0x7f0000
 80e227e:	4313      	orrs	r3, r2
 80e2280:	6872      	ldr	r2, [r6, #4]
 80e2282:	3a01      	subs	r2, #1
 80e2284:	f3c2 0208 	ubfx	r2, r2, #0, #9
 80e2288:	4313      	orrs	r3, r2
 80e228a:	6932      	ldr	r2, [r6, #16]
 80e228c:	3a01      	subs	r2, #1
 80e228e:	0612      	lsls	r2, r2, #24
 80e2290:	f002 42fe 	and.w	r2, r2, #2130706432	; 0x7f000000
 80e2294:	4313      	orrs	r3, r2
 80e2296:	6423      	str	r3, [r4, #64]	; 0x40
 80e2298:	6ae3      	ldr	r3, [r4, #44]	; 0x2c
 80e229a:	6972      	ldr	r2, [r6, #20]
 80e229c:	f423 6340 	bic.w	r3, r3, #3072	; 0xc00
 80e22a0:	4313      	orrs	r3, r2
 80e22a2:	62e3      	str	r3, [r4, #44]	; 0x2c
 80e22a4:	6ae3      	ldr	r3, [r4, #44]	; 0x2c
 80e22a6:	69b2      	ldr	r2, [r6, #24]
 80e22a8:	f423 7300 	bic.w	r3, r3, #512	; 0x200
 80e22ac:	4313      	orrs	r3, r2
 80e22ae:	62e3      	str	r3, [r4, #44]	; 0x2c
 80e22b0:	6ae3      	ldr	r3, [r4, #44]	; 0x2c
 80e22b2:	f423 7380 	bic.w	r3, r3, #256	; 0x100
 80e22b6:	62e3      	str	r3, [r4, #44]	; 0x2c
 80e22b8:	6c63      	ldr	r3, [r4, #68]	; 0x44
 80e22ba:	69f2      	ldr	r2, [r6, #28]
 80e22bc:	f423 437f 	bic.w	r3, r3, #65280	; 0xff00
 80e22c0:	f023 03f8 	bic.w	r3, r3, #248	; 0xf8
 80e22c4:	ea43 03c2 	orr.w	r3, r3, r2, lsl #3
 80e22c8:	6463      	str	r3, [r4, #68]	; 0x44
 80e22ca:	6ae3      	ldr	r3, [r4, #44]	; 0x2c
 80e22cc:	f443 7380 	orr.w	r3, r3, #256	; 0x100
 80e22d0:	62e3      	str	r3, [r4, #44]	; 0x2c
 80e22d2:	6ae3      	ldr	r3, [r4, #44]	; 0x2c
 80e22d4:	b9b5      	cbnz	r5, 80e2304 <RCCEx_PLL3_Config+0xcc>
 80e22d6:	f443 0380 	orr.w	r3, r3, #4194304	; 0x400000
 80e22da:	62e3      	str	r3, [r4, #44]	; 0x2c
 80e22dc:	4c11      	ldr	r4, [pc, #68]	; (80e2324 <RCCEx_PLL3_Config+0xec>)
 80e22de:	6823      	ldr	r3, [r4, #0]
 80e22e0:	f043 5380 	orr.w	r3, r3, #268435456	; 0x10000000
 80e22e4:	6023      	str	r3, [r4, #0]
 80e22e6:	f7fe fd17 	bl	80e0d18 <HAL_GetTick>
 80e22ea:	4605      	mov	r5, r0
 80e22ec:	6823      	ldr	r3, [r4, #0]
 80e22ee:	009b      	lsls	r3, r3, #2
 80e22f0:	d50f      	bpl.n	80e2312 <RCCEx_PLL3_Config+0xda>
 80e22f2:	2000      	movs	r0, #0
 80e22f4:	e005      	b.n	80e2302 <RCCEx_PLL3_Config+0xca>
 80e22f6:	f7fe fd0f 	bl	80e0d18 <HAL_GetTick>
 80e22fa:	1bc0      	subs	r0, r0, r7
 80e22fc:	2802      	cmp	r0, #2
 80e22fe:	d9ab      	bls.n	80e2258 <RCCEx_PLL3_Config+0x20>
 80e2300:	2003      	movs	r0, #3
 80e2302:	bdf8      	pop	{r3, r4, r5, r6, r7, pc}
 80e2304:	2d01      	cmp	r5, #1
 80e2306:	bf0c      	ite	eq
 80e2308:	f443 0300 	orreq.w	r3, r3, #8388608	; 0x800000
 80e230c:	f043 7380 	orrne.w	r3, r3, #16777216	; 0x1000000
 80e2310:	e7e3      	b.n	80e22da <RCCEx_PLL3_Config+0xa2>
 80e2312:	f7fe fd01 	bl	80e0d18 <HAL_GetTick>
 80e2316:	1b40      	subs	r0, r0, r5
 80e2318:	2802      	cmp	r0, #2
 80e231a:	d9e7      	bls.n	80e22ec <RCCEx_PLL3_Config+0xb4>
 80e231c:	e7f0      	b.n	80e2300 <RCCEx_PLL3_Config+0xc8>
 80e231e:	2001      	movs	r0, #1
 80e2320:	e7ef      	b.n	80e2302 <RCCEx_PLL3_Config+0xca>
 80e2322:	bf00      	nop
 80e2324:	58024400 	.word	0x58024400

080e2328 <HAL_RCCEx_PeriphCLKConfig>:
 80e2328:	e92d 43f8 	stmdb	sp!, {r3, r4, r5, r6, r7, r8, r9, lr}
 80e232c:	6806      	ldr	r6, [r0, #0]
 80e232e:	4605      	mov	r5, r0
 80e2330:	f016 6600 	ands.w	r6, r6, #134217728	; 0x8000000
 80e2334:	d009      	beq.n	80e234a <HAL_RCCEx_PeriphCLKConfig+0x22>
 80e2336:	6e03      	ldr	r3, [r0, #96]	; 0x60
 80e2338:	f5b3 1f00 	cmp.w	r3, #2097152	; 0x200000
 80e233c:	d02c      	beq.n	80e2398 <HAL_RCCEx_PeriphCLKConfig+0x70>
 80e233e:	d811      	bhi.n	80e2364 <HAL_RCCEx_PeriphCLKConfig+0x3c>
 80e2340:	b1e3      	cbz	r3, 80e237c <HAL_RCCEx_PeriphCLKConfig+0x54>
 80e2342:	f5b3 1f80 	cmp.w	r3, #1048576	; 0x100000
 80e2346:	d01f      	beq.n	80e2388 <HAL_RCCEx_PeriphCLKConfig+0x60>
 80e2348:	2601      	movs	r6, #1
 80e234a:	682b      	ldr	r3, [r5, #0]
 80e234c:	05d8      	lsls	r0, r3, #23
 80e234e:	f140 80d7 	bpl.w	80e2500 <HAL_RCCEx_PeriphCLKConfig+0x1d8>
 80e2352:	6d6b      	ldr	r3, [r5, #84]	; 0x54
 80e2354:	2b04      	cmp	r3, #4
 80e2356:	f200 80d2 	bhi.w	80e24fe <HAL_RCCEx_PeriphCLKConfig+0x1d6>
 80e235a:	e8df f003 	tbb	[pc, r3]
 80e235e:	2922      	.short	0x2922
 80e2360:	27ca      	.short	0x27ca
 80e2362:	27          	.byte	0x27
 80e2363:	00          	.byte	0x00
 80e2364:	f5b3 1f40 	cmp.w	r3, #3145728	; 0x300000
 80e2368:	d1ee      	bne.n	80e2348 <HAL_RCCEx_PeriphCLKConfig+0x20>
 80e236a:	4aac      	ldr	r2, [pc, #688]	; (80e261c <HAL_RCCEx_PeriphCLKConfig+0x2f4>)
 80e236c:	2600      	movs	r6, #0
 80e236e:	6e29      	ldr	r1, [r5, #96]	; 0x60
 80e2370:	6d13      	ldr	r3, [r2, #80]	; 0x50
 80e2372:	f423 1340 	bic.w	r3, r3, #3145728	; 0x300000
 80e2376:	430b      	orrs	r3, r1
 80e2378:	6513      	str	r3, [r2, #80]	; 0x50
 80e237a:	e7e6      	b.n	80e234a <HAL_RCCEx_PeriphCLKConfig+0x22>
 80e237c:	4aa7      	ldr	r2, [pc, #668]	; (80e261c <HAL_RCCEx_PeriphCLKConfig+0x2f4>)
 80e237e:	6ad3      	ldr	r3, [r2, #44]	; 0x2c
 80e2380:	f443 3300 	orr.w	r3, r3, #131072	; 0x20000
 80e2384:	62d3      	str	r3, [r2, #44]	; 0x2c
 80e2386:	e7f0      	b.n	80e236a <HAL_RCCEx_PeriphCLKConfig+0x42>
 80e2388:	2102      	movs	r1, #2
 80e238a:	3004      	adds	r0, #4
 80e238c:	f7ff fedc 	bl	80e2148 <RCCEx_PLL2_Config>
 80e2390:	4606      	mov	r6, r0
 80e2392:	2800      	cmp	r0, #0
 80e2394:	d1d9      	bne.n	80e234a <HAL_RCCEx_PeriphCLKConfig+0x22>
 80e2396:	e7e8      	b.n	80e236a <HAL_RCCEx_PeriphCLKConfig+0x42>
 80e2398:	2102      	movs	r1, #2
 80e239a:	3024      	adds	r0, #36	; 0x24
 80e239c:	f7ff ff4c 	bl	80e2238 <RCCEx_PLL3_Config>
 80e23a0:	e7f6      	b.n	80e2390 <HAL_RCCEx_PeriphCLKConfig+0x68>
 80e23a2:	4a9e      	ldr	r2, [pc, #632]	; (80e261c <HAL_RCCEx_PeriphCLKConfig+0x2f4>)
 80e23a4:	6ad3      	ldr	r3, [r2, #44]	; 0x2c
 80e23a6:	f443 3300 	orr.w	r3, r3, #131072	; 0x20000
 80e23aa:	62d3      	str	r3, [r2, #44]	; 0x2c
 80e23ac:	4634      	mov	r4, r6
 80e23ae:	e004      	b.n	80e23ba <HAL_RCCEx_PeriphCLKConfig+0x92>
 80e23b0:	2100      	movs	r1, #0
 80e23b2:	1d28      	adds	r0, r5, #4
 80e23b4:	f7ff fec8 	bl	80e2148 <RCCEx_PLL2_Config>
 80e23b8:	4604      	mov	r4, r0
 80e23ba:	2c00      	cmp	r4, #0
 80e23bc:	f040 80a2 	bne.w	80e2504 <HAL_RCCEx_PeriphCLKConfig+0x1dc>
 80e23c0:	4a96      	ldr	r2, [pc, #600]	; (80e261c <HAL_RCCEx_PeriphCLKConfig+0x2f4>)
 80e23c2:	6d69      	ldr	r1, [r5, #84]	; 0x54
 80e23c4:	6d13      	ldr	r3, [r2, #80]	; 0x50
 80e23c6:	f023 0307 	bic.w	r3, r3, #7
 80e23ca:	430b      	orrs	r3, r1
 80e23cc:	6513      	str	r3, [r2, #80]	; 0x50
 80e23ce:	682b      	ldr	r3, [r5, #0]
 80e23d0:	0559      	lsls	r1, r3, #21
 80e23d2:	d510      	bpl.n	80e23f6 <HAL_RCCEx_PeriphCLKConfig+0xce>
 80e23d4:	f8d5 30a0 	ldr.w	r3, [r5, #160]	; 0xa0
 80e23d8:	f5b3 0f80 	cmp.w	r3, #4194304	; 0x400000
 80e23dc:	f000 80b3 	beq.w	80e2546 <HAL_RCCEx_PeriphCLKConfig+0x21e>
 80e23e0:	f200 8092 	bhi.w	80e2508 <HAL_RCCEx_PeriphCLKConfig+0x1e0>
 80e23e4:	2b00      	cmp	r3, #0
 80e23e6:	f000 80a2 	beq.w	80e252e <HAL_RCCEx_PeriphCLKConfig+0x206>
 80e23ea:	f5b3 1f00 	cmp.w	r3, #2097152	; 0x200000
 80e23ee:	f000 80a4 	beq.w	80e253a <HAL_RCCEx_PeriphCLKConfig+0x212>
 80e23f2:	2601      	movs	r6, #1
 80e23f4:	4634      	mov	r4, r6
 80e23f6:	682b      	ldr	r3, [r5, #0]
 80e23f8:	051a      	lsls	r2, r3, #20
 80e23fa:	d510      	bpl.n	80e241e <HAL_RCCEx_PeriphCLKConfig+0xf6>
 80e23fc:	f8d5 30a4 	ldr.w	r3, [r5, #164]	; 0xa4
 80e2400:	f1b3 7f00 	cmp.w	r3, #33554432	; 0x2000000
 80e2404:	f000 80c6 	beq.w	80e2594 <HAL_RCCEx_PeriphCLKConfig+0x26c>
 80e2408:	f200 80a5 	bhi.w	80e2556 <HAL_RCCEx_PeriphCLKConfig+0x22e>
 80e240c:	2b00      	cmp	r3, #0
 80e240e:	f000 80b5 	beq.w	80e257c <HAL_RCCEx_PeriphCLKConfig+0x254>
 80e2412:	f1b3 7f80 	cmp.w	r3, #16777216	; 0x1000000
 80e2416:	f000 80b7 	beq.w	80e2588 <HAL_RCCEx_PeriphCLKConfig+0x260>
 80e241a:	2601      	movs	r6, #1
 80e241c:	4634      	mov	r4, r6
 80e241e:	682b      	ldr	r3, [r5, #0]
 80e2420:	019b      	lsls	r3, r3, #6
 80e2422:	d50d      	bpl.n	80e2440 <HAL_RCCEx_PeriphCLKConfig+0x118>
 80e2424:	6cab      	ldr	r3, [r5, #72]	; 0x48
 80e2426:	2b20      	cmp	r3, #32
 80e2428:	f000 80ce 	beq.w	80e25c8 <HAL_RCCEx_PeriphCLKConfig+0x2a0>
 80e242c:	f200 80ba 	bhi.w	80e25a4 <HAL_RCCEx_PeriphCLKConfig+0x27c>
 80e2430:	2b00      	cmp	r3, #0
 80e2432:	f000 80ba 	beq.w	80e25aa <HAL_RCCEx_PeriphCLKConfig+0x282>
 80e2436:	2b10      	cmp	r3, #16
 80e2438:	f000 80c0 	beq.w	80e25bc <HAL_RCCEx_PeriphCLKConfig+0x294>
 80e243c:	2601      	movs	r6, #1
 80e243e:	4634      	mov	r4, r6
 80e2440:	682b      	ldr	r3, [r5, #0]
 80e2442:	04df      	lsls	r7, r3, #19
 80e2444:	d50f      	bpl.n	80e2466 <HAL_RCCEx_PeriphCLKConfig+0x13e>
 80e2446:	6dab      	ldr	r3, [r5, #88]	; 0x58
 80e2448:	f5b3 5f00 	cmp.w	r3, #8192	; 0x2000
 80e244c:	f000 80e0 	beq.w	80e2610 <HAL_RCCEx_PeriphCLKConfig+0x2e8>
 80e2450:	f200 80c2 	bhi.w	80e25d8 <HAL_RCCEx_PeriphCLKConfig+0x2b0>
 80e2454:	2b00      	cmp	r3, #0
 80e2456:	f000 80cf 	beq.w	80e25f8 <HAL_RCCEx_PeriphCLKConfig+0x2d0>
 80e245a:	f5b3 5f80 	cmp.w	r3, #4096	; 0x1000
 80e245e:	f000 80d1 	beq.w	80e2604 <HAL_RCCEx_PeriphCLKConfig+0x2dc>
 80e2462:	2601      	movs	r6, #1
 80e2464:	4634      	mov	r4, r6
 80e2466:	682b      	ldr	r3, [r5, #0]
 80e2468:	0498      	lsls	r0, r3, #18
 80e246a:	d50f      	bpl.n	80e248c <HAL_RCCEx_PeriphCLKConfig+0x164>
 80e246c:	6deb      	ldr	r3, [r5, #92]	; 0x5c
 80e246e:	f5b3 3f00 	cmp.w	r3, #131072	; 0x20000
 80e2472:	f000 80ef 	beq.w	80e2654 <HAL_RCCEx_PeriphCLKConfig+0x32c>
 80e2476:	f200 80d5 	bhi.w	80e2624 <HAL_RCCEx_PeriphCLKConfig+0x2fc>
 80e247a:	2b00      	cmp	r3, #0
 80e247c:	f000 80db 	beq.w	80e2636 <HAL_RCCEx_PeriphCLKConfig+0x30e>
 80e2480:	f5b3 3f80 	cmp.w	r3, #65536	; 0x10000
 80e2484:	f000 80e0 	beq.w	80e2648 <HAL_RCCEx_PeriphCLKConfig+0x320>
 80e2488:	2601      	movs	r6, #1
 80e248a:	4634      	mov	r4, r6
 80e248c:	682b      	ldr	r3, [r5, #0]
 80e248e:	0459      	lsls	r1, r3, #17
 80e2490:	d510      	bpl.n	80e24b4 <HAL_RCCEx_PeriphCLKConfig+0x18c>
 80e2492:	f8d5 30a8 	ldr.w	r3, [r5, #168]	; 0xa8
 80e2496:	f1b3 5f00 	cmp.w	r3, #536870912	; 0x20000000
 80e249a:	f000 80fc 	beq.w	80e2696 <HAL_RCCEx_PeriphCLKConfig+0x36e>
 80e249e:	f200 80e1 	bhi.w	80e2664 <HAL_RCCEx_PeriphCLKConfig+0x33c>
 80e24a2:	2b00      	cmp	r3, #0
 80e24a4:	f000 80e7 	beq.w	80e2676 <HAL_RCCEx_PeriphCLKConfig+0x34e>
 80e24a8:	f1b3 5f80 	cmp.w	r3, #268435456	; 0x10000000
 80e24ac:	f000 80ed 	beq.w	80e268a <HAL_RCCEx_PeriphCLKConfig+0x362>
 80e24b0:	2601      	movs	r6, #1
 80e24b2:	4634      	mov	r4, r6
 80e24b4:	682b      	ldr	r3, [r5, #0]
 80e24b6:	041a      	lsls	r2, r3, #16
 80e24b8:	d50d      	bpl.n	80e24d6 <HAL_RCCEx_PeriphCLKConfig+0x1ae>
 80e24ba:	6eab      	ldr	r3, [r5, #104]	; 0x68
 80e24bc:	f1b3 5f80 	cmp.w	r3, #268435456	; 0x10000000
 80e24c0:	f000 80f1 	beq.w	80e26a6 <HAL_RCCEx_PeriphCLKConfig+0x37e>
 80e24c4:	f1b3 5f00 	cmp.w	r3, #536870912	; 0x20000000
 80e24c8:	f000 80fb 	beq.w	80e26c2 <HAL_RCCEx_PeriphCLKConfig+0x39a>
 80e24cc:	2b00      	cmp	r3, #0
 80e24ce:	f000 80ef 	beq.w	80e26b0 <HAL_RCCEx_PeriphCLKConfig+0x388>
 80e24d2:	2601      	movs	r6, #1
 80e24d4:	4634      	mov	r4, r6
 80e24d6:	682b      	ldr	r3, [r5, #0]
 80e24d8:	01db      	lsls	r3, r3, #7
 80e24da:	f140 8108 	bpl.w	80e26ee <HAL_RCCEx_PeriphCLKConfig+0x3c6>
 80e24de:	6c6b      	ldr	r3, [r5, #68]	; 0x44
 80e24e0:	2b03      	cmp	r3, #3
 80e24e2:	f200 8148 	bhi.w	80e2776 <HAL_RCCEx_PeriphCLKConfig+0x44e>
 80e24e6:	e8df f013 	tbh	[pc, r3, lsl #1]
 80e24ea:	00f9      	.short	0x00f9
 80e24ec:	014000f4 	.word	0x014000f4
 80e24f0:	00f9      	.short	0x00f9
 80e24f2:	2100      	movs	r1, #0
 80e24f4:	f105 0024 	add.w	r0, r5, #36	; 0x24
 80e24f8:	f7ff fe9e 	bl	80e2238 <RCCEx_PLL3_Config>
 80e24fc:	e75c      	b.n	80e23b8 <HAL_RCCEx_PeriphCLKConfig+0x90>
 80e24fe:	2601      	movs	r6, #1
 80e2500:	4634      	mov	r4, r6
 80e2502:	e764      	b.n	80e23ce <HAL_RCCEx_PeriphCLKConfig+0xa6>
 80e2504:	4626      	mov	r6, r4
 80e2506:	e762      	b.n	80e23ce <HAL_RCCEx_PeriphCLKConfig+0xa6>
 80e2508:	f423 1200 	bic.w	r2, r3, #2097152	; 0x200000
 80e250c:	f5b2 0f00 	cmp.w	r2, #8388608	; 0x800000
 80e2510:	d003      	beq.n	80e251a <HAL_RCCEx_PeriphCLKConfig+0x1f2>
 80e2512:	f5b3 0fc0 	cmp.w	r3, #6291456	; 0x600000
 80e2516:	f47f af6c 	bne.w	80e23f2 <HAL_RCCEx_PeriphCLKConfig+0xca>
 80e251a:	b9d4      	cbnz	r4, 80e2552 <HAL_RCCEx_PeriphCLKConfig+0x22a>
 80e251c:	4a3f      	ldr	r2, [pc, #252]	; (80e261c <HAL_RCCEx_PeriphCLKConfig+0x2f4>)
 80e251e:	f8d5 10a0 	ldr.w	r1, [r5, #160]	; 0xa0
 80e2522:	6d93      	ldr	r3, [r2, #88]	; 0x58
 80e2524:	f423 0360 	bic.w	r3, r3, #14680064	; 0xe00000
 80e2528:	430b      	orrs	r3, r1
 80e252a:	6593      	str	r3, [r2, #88]	; 0x58
 80e252c:	e763      	b.n	80e23f6 <HAL_RCCEx_PeriphCLKConfig+0xce>
 80e252e:	4a3b      	ldr	r2, [pc, #236]	; (80e261c <HAL_RCCEx_PeriphCLKConfig+0x2f4>)
 80e2530:	6ad3      	ldr	r3, [r2, #44]	; 0x2c
 80e2532:	f443 3300 	orr.w	r3, r3, #131072	; 0x20000
 80e2536:	62d3      	str	r3, [r2, #44]	; 0x2c
 80e2538:	e7ef      	b.n	80e251a <HAL_RCCEx_PeriphCLKConfig+0x1f2>
 80e253a:	2100      	movs	r1, #0
 80e253c:	1d28      	adds	r0, r5, #4
 80e253e:	f7ff fe03 	bl	80e2148 <RCCEx_PLL2_Config>
 80e2542:	4604      	mov	r4, r0
 80e2544:	e7e9      	b.n	80e251a <HAL_RCCEx_PeriphCLKConfig+0x1f2>
 80e2546:	2100      	movs	r1, #0
 80e2548:	f105 0024 	add.w	r0, r5, #36	; 0x24
 80e254c:	f7ff fe74 	bl	80e2238 <RCCEx_PLL3_Config>
 80e2550:	e7f7      	b.n	80e2542 <HAL_RCCEx_PeriphCLKConfig+0x21a>
 80e2552:	4626      	mov	r6, r4
 80e2554:	e74f      	b.n	80e23f6 <HAL_RCCEx_PeriphCLKConfig+0xce>
 80e2556:	f023 7280 	bic.w	r2, r3, #16777216	; 0x1000000
 80e255a:	f1b2 6f80 	cmp.w	r2, #67108864	; 0x4000000
 80e255e:	d003      	beq.n	80e2568 <HAL_RCCEx_PeriphCLKConfig+0x240>
 80e2560:	f1b3 7f40 	cmp.w	r3, #50331648	; 0x3000000
 80e2564:	f47f af59 	bne.w	80e241a <HAL_RCCEx_PeriphCLKConfig+0xf2>
 80e2568:	b9d4      	cbnz	r4, 80e25a0 <HAL_RCCEx_PeriphCLKConfig+0x278>
 80e256a:	4a2c      	ldr	r2, [pc, #176]	; (80e261c <HAL_RCCEx_PeriphCLKConfig+0x2f4>)
 80e256c:	f8d5 10a4 	ldr.w	r1, [r5, #164]	; 0xa4
 80e2570:	6d93      	ldr	r3, [r2, #88]	; 0x58
 80e2572:	f023 63e0 	bic.w	r3, r3, #117440512	; 0x7000000
 80e2576:	430b      	orrs	r3, r1
 80e2578:	6593      	str	r3, [r2, #88]	; 0x58
 80e257a:	e750      	b.n	80e241e <HAL_RCCEx_PeriphCLKConfig+0xf6>
 80e257c:	4a27      	ldr	r2, [pc, #156]	; (80e261c <HAL_RCCEx_PeriphCLKConfig+0x2f4>)
 80e257e:	6ad3      	ldr	r3, [r2, #44]	; 0x2c
 80e2580:	f443 3300 	orr.w	r3, r3, #131072	; 0x20000
 80e2584:	62d3      	str	r3, [r2, #44]	; 0x2c
 80e2586:	e7ef      	b.n	80e2568 <HAL_RCCEx_PeriphCLKConfig+0x240>
 80e2588:	2100      	movs	r1, #0
 80e258a:	1d28      	adds	r0, r5, #4
 80e258c:	f7ff fddc 	bl	80e2148 <RCCEx_PLL2_Config>
 80e2590:	4604      	mov	r4, r0
 80e2592:	e7e9      	b.n	80e2568 <HAL_RCCEx_PeriphCLKConfig+0x240>
 80e2594:	2100      	movs	r1, #0
 80e2596:	f105 0024 	add.w	r0, r5, #36	; 0x24
 80e259a:	f7ff fe4d 	bl	80e2238 <RCCEx_PLL3_Config>
 80e259e:	e7f7      	b.n	80e2590 <HAL_RCCEx_PeriphCLKConfig+0x268>
 80e25a0:	4626      	mov	r6, r4
 80e25a2:	e73c      	b.n	80e241e <HAL_RCCEx_PeriphCLKConfig+0xf6>
 80e25a4:	2b30      	cmp	r3, #48	; 0x30
 80e25a6:	f47f af49 	bne.w	80e243c <HAL_RCCEx_PeriphCLKConfig+0x114>
 80e25aa:	b99c      	cbnz	r4, 80e25d4 <HAL_RCCEx_PeriphCLKConfig+0x2ac>
 80e25ac:	4a1b      	ldr	r2, [pc, #108]	; (80e261c <HAL_RCCEx_PeriphCLKConfig+0x2f4>)
 80e25ae:	6ca9      	ldr	r1, [r5, #72]	; 0x48
 80e25b0:	6cd3      	ldr	r3, [r2, #76]	; 0x4c
 80e25b2:	f023 0330 	bic.w	r3, r3, #48	; 0x30
 80e25b6:	430b      	orrs	r3, r1
 80e25b8:	64d3      	str	r3, [r2, #76]	; 0x4c
 80e25ba:	e741      	b.n	80e2440 <HAL_RCCEx_PeriphCLKConfig+0x118>
 80e25bc:	4a17      	ldr	r2, [pc, #92]	; (80e261c <HAL_RCCEx_PeriphCLKConfig+0x2f4>)
 80e25be:	6ad3      	ldr	r3, [r2, #44]	; 0x2c
 80e25c0:	f443 3300 	orr.w	r3, r3, #131072	; 0x20000
 80e25c4:	62d3      	str	r3, [r2, #44]	; 0x2c
 80e25c6:	e7f0      	b.n	80e25aa <HAL_RCCEx_PeriphCLKConfig+0x282>
 80e25c8:	2102      	movs	r1, #2
 80e25ca:	1d28      	adds	r0, r5, #4
 80e25cc:	f7ff fdbc 	bl	80e2148 <RCCEx_PLL2_Config>
 80e25d0:	4604      	mov	r4, r0
 80e25d2:	e7ea      	b.n	80e25aa <HAL_RCCEx_PeriphCLKConfig+0x282>
 80e25d4:	4626      	mov	r6, r4
 80e25d6:	e733      	b.n	80e2440 <HAL_RCCEx_PeriphCLKConfig+0x118>
 80e25d8:	f5b3 5f40 	cmp.w	r3, #12288	; 0x3000
 80e25dc:	d003      	beq.n	80e25e6 <HAL_RCCEx_PeriphCLKConfig+0x2be>
 80e25de:	f5b3 4f80 	cmp.w	r3, #16384	; 0x4000
 80e25e2:	f47f af3e 	bne.w	80e2462 <HAL_RCCEx_PeriphCLKConfig+0x13a>
 80e25e6:	b9dc      	cbnz	r4, 80e2620 <HAL_RCCEx_PeriphCLKConfig+0x2f8>
 80e25e8:	4a0c      	ldr	r2, [pc, #48]	; (80e261c <HAL_RCCEx_PeriphCLKConfig+0x2f4>)
 80e25ea:	6da9      	ldr	r1, [r5, #88]	; 0x58
 80e25ec:	6d13      	ldr	r3, [r2, #80]	; 0x50
 80e25ee:	f423 43e0 	bic.w	r3, r3, #28672	; 0x7000
 80e25f2:	430b      	orrs	r3, r1
 80e25f4:	6513      	str	r3, [r2, #80]	; 0x50
 80e25f6:	e736      	b.n	80e2466 <HAL_RCCEx_PeriphCLKConfig+0x13e>
 80e25f8:	4a08      	ldr	r2, [pc, #32]	; (80e261c <HAL_RCCEx_PeriphCLKConfig+0x2f4>)
 80e25fa:	6ad3      	ldr	r3, [r2, #44]	; 0x2c
 80e25fc:	f443 3300 	orr.w	r3, r3, #131072	; 0x20000
 80e2600:	62d3      	str	r3, [r2, #44]	; 0x2c
 80e2602:	e7f0      	b.n	80e25e6 <HAL_RCCEx_PeriphCLKConfig+0x2be>
 80e2604:	2100      	movs	r1, #0
 80e2606:	1d28      	adds	r0, r5, #4
 80e2608:	f7ff fd9e 	bl	80e2148 <RCCEx_PLL2_Config>
 80e260c:	4604      	mov	r4, r0
 80e260e:	e7ea      	b.n	80e25e6 <HAL_RCCEx_PeriphCLKConfig+0x2be>
 80e2610:	2100      	movs	r1, #0
 80e2612:	f105 0024 	add.w	r0, r5, #36	; 0x24
 80e2616:	f7ff fe0f 	bl	80e2238 <RCCEx_PLL3_Config>
 80e261a:	e7f7      	b.n	80e260c <HAL_RCCEx_PeriphCLKConfig+0x2e4>
 80e261c:	58024400 	.word	0x58024400
 80e2620:	4626      	mov	r6, r4
 80e2622:	e720      	b.n	80e2466 <HAL_RCCEx_PeriphCLKConfig+0x13e>
 80e2624:	f423 3280 	bic.w	r2, r3, #65536	; 0x10000
 80e2628:	f5b2 2f80 	cmp.w	r2, #262144	; 0x40000
 80e262c:	d003      	beq.n	80e2636 <HAL_RCCEx_PeriphCLKConfig+0x30e>
 80e262e:	f5b3 3f40 	cmp.w	r3, #196608	; 0x30000
 80e2632:	f47f af29 	bne.w	80e2488 <HAL_RCCEx_PeriphCLKConfig+0x160>
 80e2636:	b99c      	cbnz	r4, 80e2660 <HAL_RCCEx_PeriphCLKConfig+0x338>
 80e2638:	4a8f      	ldr	r2, [pc, #572]	; (80e2878 <HAL_RCCEx_PeriphCLKConfig+0x550>)
 80e263a:	6de9      	ldr	r1, [r5, #92]	; 0x5c
 80e263c:	6d13      	ldr	r3, [r2, #80]	; 0x50
 80e263e:	f423 23e0 	bic.w	r3, r3, #458752	; 0x70000
 80e2642:	430b      	orrs	r3, r1
 80e2644:	6513      	str	r3, [r2, #80]	; 0x50
 80e2646:	e721      	b.n	80e248c <HAL_RCCEx_PeriphCLKConfig+0x164>
 80e2648:	2101      	movs	r1, #1
 80e264a:	1d28      	adds	r0, r5, #4
 80e264c:	f7ff fd7c 	bl	80e2148 <RCCEx_PLL2_Config>
 80e2650:	4604      	mov	r4, r0
 80e2652:	e7f0      	b.n	80e2636 <HAL_RCCEx_PeriphCLKConfig+0x30e>
 80e2654:	2101      	movs	r1, #1
 80e2656:	f105 0024 	add.w	r0, r5, #36	; 0x24
 80e265a:	f7ff fded 	bl	80e2238 <RCCEx_PLL3_Config>
 80e265e:	e7f7      	b.n	80e2650 <HAL_RCCEx_PeriphCLKConfig+0x328>
 80e2660:	4626      	mov	r6, r4
 80e2662:	e713      	b.n	80e248c <HAL_RCCEx_PeriphCLKConfig+0x164>
 80e2664:	f023 5280 	bic.w	r2, r3, #268435456	; 0x10000000
 80e2668:	f1b2 4f80 	cmp.w	r2, #1073741824	; 0x40000000
 80e266c:	d003      	beq.n	80e2676 <HAL_RCCEx_PeriphCLKConfig+0x34e>
 80e266e:	f1b3 5f40 	cmp.w	r3, #805306368	; 0x30000000
 80e2672:	f47f af1d 	bne.w	80e24b0 <HAL_RCCEx_PeriphCLKConfig+0x188>
 80e2676:	b9a4      	cbnz	r4, 80e26a2 <HAL_RCCEx_PeriphCLKConfig+0x37a>
 80e2678:	4a7f      	ldr	r2, [pc, #508]	; (80e2878 <HAL_RCCEx_PeriphCLKConfig+0x550>)
 80e267a:	f8d5 10a8 	ldr.w	r1, [r5, #168]	; 0xa8
 80e267e:	6d93      	ldr	r3, [r2, #88]	; 0x58
 80e2680:	f023 43e0 	bic.w	r3, r3, #1879048192	; 0x70000000
 80e2684:	430b      	orrs	r3, r1
 80e2686:	6593      	str	r3, [r2, #88]	; 0x58
 80e2688:	e714      	b.n	80e24b4 <HAL_RCCEx_PeriphCLKConfig+0x18c>
 80e268a:	2101      	movs	r1, #1
 80e268c:	1d28      	adds	r0, r5, #4
 80e268e:	f7ff fd5b 	bl	80e2148 <RCCEx_PLL2_Config>
 80e2692:	4604      	mov	r4, r0
 80e2694:	e7ef      	b.n	80e2676 <HAL_RCCEx_PeriphCLKConfig+0x34e>
 80e2696:	2101      	movs	r1, #1
 80e2698:	f105 0024 	add.w	r0, r5, #36	; 0x24
 80e269c:	f7ff fdcc 	bl	80e2238 <RCCEx_PLL3_Config>
 80e26a0:	e7f7      	b.n	80e2692 <HAL_RCCEx_PeriphCLKConfig+0x36a>
 80e26a2:	4626      	mov	r6, r4
 80e26a4:	e706      	b.n	80e24b4 <HAL_RCCEx_PeriphCLKConfig+0x18c>
 80e26a6:	4a74      	ldr	r2, [pc, #464]	; (80e2878 <HAL_RCCEx_PeriphCLKConfig+0x550>)
 80e26a8:	6ad3      	ldr	r3, [r2, #44]	; 0x2c
 80e26aa:	f443 3300 	orr.w	r3, r3, #131072	; 0x20000
 80e26ae:	62d3      	str	r3, [r2, #44]	; 0x2c
 80e26b0:	b96c      	cbnz	r4, 80e26ce <HAL_RCCEx_PeriphCLKConfig+0x3a6>
 80e26b2:	4a71      	ldr	r2, [pc, #452]	; (80e2878 <HAL_RCCEx_PeriphCLKConfig+0x550>)
 80e26b4:	6ea9      	ldr	r1, [r5, #104]	; 0x68
 80e26b6:	6d13      	ldr	r3, [r2, #80]	; 0x50
 80e26b8:	f023 5340 	bic.w	r3, r3, #805306368	; 0x30000000
 80e26bc:	430b      	orrs	r3, r1
 80e26be:	6513      	str	r3, [r2, #80]	; 0x50
 80e26c0:	e709      	b.n	80e24d6 <HAL_RCCEx_PeriphCLKConfig+0x1ae>
 80e26c2:	2101      	movs	r1, #1
 80e26c4:	1d28      	adds	r0, r5, #4
 80e26c6:	f7ff fd3f 	bl	80e2148 <RCCEx_PLL2_Config>
 80e26ca:	4604      	mov	r4, r0
 80e26cc:	e7f0      	b.n	80e26b0 <HAL_RCCEx_PeriphCLKConfig+0x388>
 80e26ce:	4626      	mov	r6, r4
 80e26d0:	e701      	b.n	80e24d6 <HAL_RCCEx_PeriphCLKConfig+0x1ae>
 80e26d2:	4a69      	ldr	r2, [pc, #420]	; (80e2878 <HAL_RCCEx_PeriphCLKConfig+0x550>)
 80e26d4:	6ad3      	ldr	r3, [r2, #44]	; 0x2c
 80e26d6:	f443 3300 	orr.w	r3, r3, #131072	; 0x20000
 80e26da:	62d3      	str	r3, [r2, #44]	; 0x2c
 80e26dc:	2c00      	cmp	r4, #0
 80e26de:	d14d      	bne.n	80e277c <HAL_RCCEx_PeriphCLKConfig+0x454>
 80e26e0:	4a65      	ldr	r2, [pc, #404]	; (80e2878 <HAL_RCCEx_PeriphCLKConfig+0x550>)
 80e26e2:	6c69      	ldr	r1, [r5, #68]	; 0x44
 80e26e4:	6cd3      	ldr	r3, [r2, #76]	; 0x4c
 80e26e6:	f023 0303 	bic.w	r3, r3, #3
 80e26ea:	430b      	orrs	r3, r1
 80e26ec:	64d3      	str	r3, [r2, #76]	; 0x4c
 80e26ee:	682b      	ldr	r3, [r5, #0]
 80e26f0:	025f      	lsls	r7, r3, #9
 80e26f2:	d54d      	bpl.n	80e2790 <HAL_RCCEx_PeriphCLKConfig+0x468>
 80e26f4:	4f61      	ldr	r7, [pc, #388]	; (80e287c <HAL_RCCEx_PeriphCLKConfig+0x554>)
 80e26f6:	683b      	ldr	r3, [r7, #0]
 80e26f8:	f443 7380 	orr.w	r3, r3, #256	; 0x100
 80e26fc:	603b      	str	r3, [r7, #0]
 80e26fe:	f7fe fb0b 	bl	80e0d18 <HAL_GetTick>
 80e2702:	4680      	mov	r8, r0
 80e2704:	683b      	ldr	r3, [r7, #0]
 80e2706:	05d8      	lsls	r0, r3, #23
 80e2708:	d53a      	bpl.n	80e2780 <HAL_RCCEx_PeriphCLKConfig+0x458>
 80e270a:	2c00      	cmp	r4, #0
 80e270c:	d16c      	bne.n	80e27e8 <HAL_RCCEx_PeriphCLKConfig+0x4c0>
 80e270e:	4b5a      	ldr	r3, [pc, #360]	; (80e2878 <HAL_RCCEx_PeriphCLKConfig+0x550>)
 80e2710:	f8d5 00ac 	ldr.w	r0, [r5, #172]	; 0xac
 80e2714:	6f1a      	ldr	r2, [r3, #112]	; 0x70
 80e2716:	4042      	eors	r2, r0
 80e2718:	f412 7f40 	tst.w	r2, #768	; 0x300
 80e271c:	d00b      	beq.n	80e2736 <HAL_RCCEx_PeriphCLKConfig+0x40e>
 80e271e:	6f1a      	ldr	r2, [r3, #112]	; 0x70
 80e2720:	6f19      	ldr	r1, [r3, #112]	; 0x70
 80e2722:	f422 7240 	bic.w	r2, r2, #768	; 0x300
 80e2726:	f441 3180 	orr.w	r1, r1, #65536	; 0x10000
 80e272a:	6719      	str	r1, [r3, #112]	; 0x70
 80e272c:	6f19      	ldr	r1, [r3, #112]	; 0x70
 80e272e:	f421 3180 	bic.w	r1, r1, #65536	; 0x10000
 80e2732:	6719      	str	r1, [r3, #112]	; 0x70
 80e2734:	671a      	str	r2, [r3, #112]	; 0x70
 80e2736:	f5b0 7f80 	cmp.w	r0, #256	; 0x100
 80e273a:	d040      	beq.n	80e27be <HAL_RCCEx_PeriphCLKConfig+0x496>
 80e273c:	f8d5 30ac 	ldr.w	r3, [r5, #172]	; 0xac
 80e2740:	494d      	ldr	r1, [pc, #308]	; (80e2878 <HAL_RCCEx_PeriphCLKConfig+0x550>)
 80e2742:	f403 7240 	and.w	r2, r3, #768	; 0x300
 80e2746:	f5b2 7f40 	cmp.w	r2, #768	; 0x300
 80e274a:	d149      	bne.n	80e27e0 <HAL_RCCEx_PeriphCLKConfig+0x4b8>
 80e274c:	6908      	ldr	r0, [r1, #16]
 80e274e:	4a4c      	ldr	r2, [pc, #304]	; (80e2880 <HAL_RCCEx_PeriphCLKConfig+0x558>)
 80e2750:	f420 507c 	bic.w	r0, r0, #16128	; 0x3f00
 80e2754:	ea02 1213 	and.w	r2, r2, r3, lsr #4
 80e2758:	4302      	orrs	r2, r0
 80e275a:	610a      	str	r2, [r1, #16]
 80e275c:	f3c3 030b 	ubfx	r3, r3, #0, #12
 80e2760:	4a45      	ldr	r2, [pc, #276]	; (80e2878 <HAL_RCCEx_PeriphCLKConfig+0x550>)
 80e2762:	6f11      	ldr	r1, [r2, #112]	; 0x70
 80e2764:	430b      	orrs	r3, r1
 80e2766:	6713      	str	r3, [r2, #112]	; 0x70
 80e2768:	e012      	b.n	80e2790 <HAL_RCCEx_PeriphCLKConfig+0x468>
 80e276a:	2102      	movs	r1, #2
 80e276c:	1d28      	adds	r0, r5, #4
 80e276e:	f7ff fceb 	bl	80e2148 <RCCEx_PLL2_Config>
 80e2772:	4604      	mov	r4, r0
 80e2774:	e7b2      	b.n	80e26dc <HAL_RCCEx_PeriphCLKConfig+0x3b4>
 80e2776:	2601      	movs	r6, #1
 80e2778:	4634      	mov	r4, r6
 80e277a:	e7b8      	b.n	80e26ee <HAL_RCCEx_PeriphCLKConfig+0x3c6>
 80e277c:	4626      	mov	r6, r4
 80e277e:	e7b6      	b.n	80e26ee <HAL_RCCEx_PeriphCLKConfig+0x3c6>
 80e2780:	f7fe faca 	bl	80e0d18 <HAL_GetTick>
 80e2784:	eba0 0008 	sub.w	r0, r0, r8
 80e2788:	2864      	cmp	r0, #100	; 0x64
 80e278a:	d9bb      	bls.n	80e2704 <HAL_RCCEx_PeriphCLKConfig+0x3dc>
 80e278c:	2603      	movs	r6, #3
 80e278e:	4634      	mov	r4, r6
 80e2790:	682b      	ldr	r3, [r5, #0]
 80e2792:	07da      	lsls	r2, r3, #31
 80e2794:	d508      	bpl.n	80e27a8 <HAL_RCCEx_PeriphCLKConfig+0x480>
 80e2796:	6f6b      	ldr	r3, [r5, #116]	; 0x74
 80e2798:	2b10      	cmp	r3, #16
 80e279a:	d03c      	beq.n	80e2816 <HAL_RCCEx_PeriphCLKConfig+0x4ee>
 80e279c:	d826      	bhi.n	80e27ec <HAL_RCCEx_PeriphCLKConfig+0x4c4>
 80e279e:	b35b      	cbz	r3, 80e27f8 <HAL_RCCEx_PeriphCLKConfig+0x4d0>
 80e27a0:	2b08      	cmp	r3, #8
 80e27a2:	d032      	beq.n	80e280a <HAL_RCCEx_PeriphCLKConfig+0x4e2>
 80e27a4:	2601      	movs	r6, #1
 80e27a6:	4634      	mov	r4, r6
 80e27a8:	682b      	ldr	r3, [r5, #0]
 80e27aa:	079b      	lsls	r3, r3, #30
 80e27ac:	d548      	bpl.n	80e2840 <HAL_RCCEx_PeriphCLKConfig+0x518>
 80e27ae:	6f2b      	ldr	r3, [r5, #112]	; 0x70
 80e27b0:	2b05      	cmp	r3, #5
 80e27b2:	d85b      	bhi.n	80e286c <HAL_RCCEx_PeriphCLKConfig+0x544>
 80e27b4:	e8df f003 	tbb	[pc, r3]
 80e27b8:	3c54373c 	.word	0x3c54373c
 80e27bc:	3c3c      	.short	0x3c3c
 80e27be:	f7fe faab 	bl	80e0d18 <HAL_GetTick>
 80e27c2:	f8df 80b4 	ldr.w	r8, [pc, #180]	; 80e2878 <HAL_RCCEx_PeriphCLKConfig+0x550>
 80e27c6:	4607      	mov	r7, r0
 80e27c8:	f241 3988 	movw	r9, #5000	; 0x1388
 80e27cc:	f8d8 3070 	ldr.w	r3, [r8, #112]	; 0x70
 80e27d0:	0799      	lsls	r1, r3, #30
 80e27d2:	d4b3      	bmi.n	80e273c <HAL_RCCEx_PeriphCLKConfig+0x414>
 80e27d4:	f7fe faa0 	bl	80e0d18 <HAL_GetTick>
 80e27d8:	1bc0      	subs	r0, r0, r7
 80e27da:	4548      	cmp	r0, r9
 80e27dc:	d9f6      	bls.n	80e27cc <HAL_RCCEx_PeriphCLKConfig+0x4a4>
 80e27de:	e7d5      	b.n	80e278c <HAL_RCCEx_PeriphCLKConfig+0x464>
 80e27e0:	690a      	ldr	r2, [r1, #16]
 80e27e2:	f422 527c 	bic.w	r2, r2, #16128	; 0x3f00
 80e27e6:	e7b8      	b.n	80e275a <HAL_RCCEx_PeriphCLKConfig+0x432>
 80e27e8:	4626      	mov	r6, r4
 80e27ea:	e7d1      	b.n	80e2790 <HAL_RCCEx_PeriphCLKConfig+0x468>
 80e27ec:	f023 0208 	bic.w	r2, r3, #8
 80e27f0:	2a20      	cmp	r2, #32
 80e27f2:	d001      	beq.n	80e27f8 <HAL_RCCEx_PeriphCLKConfig+0x4d0>
 80e27f4:	2b18      	cmp	r3, #24
 80e27f6:	d1d5      	bne.n	80e27a4 <HAL_RCCEx_PeriphCLKConfig+0x47c>
 80e27f8:	b99c      	cbnz	r4, 80e2822 <HAL_RCCEx_PeriphCLKConfig+0x4fa>
 80e27fa:	4a1f      	ldr	r2, [pc, #124]	; (80e2878 <HAL_RCCEx_PeriphCLKConfig+0x550>)
 80e27fc:	6f69      	ldr	r1, [r5, #116]	; 0x74
 80e27fe:	6d53      	ldr	r3, [r2, #84]	; 0x54
 80e2800:	f023 0338 	bic.w	r3, r3, #56	; 0x38
 80e2804:	430b      	orrs	r3, r1
 80e2806:	6553      	str	r3, [r2, #84]	; 0x54
 80e2808:	e7ce      	b.n	80e27a8 <HAL_RCCEx_PeriphCLKConfig+0x480>
 80e280a:	2101      	movs	r1, #1
 80e280c:	1d28      	adds	r0, r5, #4
 80e280e:	f7ff fc9b 	bl	80e2148 <RCCEx_PLL2_Config>
 80e2812:	4604      	mov	r4, r0
 80e2814:	e7f0      	b.n	80e27f8 <HAL_RCCEx_PeriphCLKConfig+0x4d0>
 80e2816:	2101      	movs	r1, #1
 80e2818:	f105 0024 	add.w	r0, r5, #36	; 0x24
 80e281c:	f7ff fd0c 	bl	80e2238 <RCCEx_PLL3_Config>
 80e2820:	e7f7      	b.n	80e2812 <HAL_RCCEx_PeriphCLKConfig+0x4ea>
 80e2822:	4626      	mov	r6, r4
 80e2824:	e7c0      	b.n	80e27a8 <HAL_RCCEx_PeriphCLKConfig+0x480>
 80e2826:	2101      	movs	r1, #1
 80e2828:	1d28      	adds	r0, r5, #4
 80e282a:	f7ff fc8d 	bl	80e2148 <RCCEx_PLL2_Config>
 80e282e:	4604      	mov	r4, r0
 80e2830:	b9fc      	cbnz	r4, 80e2872 <HAL_RCCEx_PeriphCLKConfig+0x54a>
 80e2832:	4a11      	ldr	r2, [pc, #68]	; (80e2878 <HAL_RCCEx_PeriphCLKConfig+0x550>)
 80e2834:	6f29      	ldr	r1, [r5, #112]	; 0x70
 80e2836:	6d53      	ldr	r3, [r2, #84]	; 0x54
 80e2838:	f023 0307 	bic.w	r3, r3, #7
 80e283c:	430b      	orrs	r3, r1
 80e283e:	6553      	str	r3, [r2, #84]	; 0x54
 80e2840:	682b      	ldr	r3, [r5, #0]
 80e2842:	075f      	lsls	r7, r3, #29
 80e2844:	d52e      	bpl.n	80e28a4 <HAL_RCCEx_PeriphCLKConfig+0x57c>
 80e2846:	f8d5 308c 	ldr.w	r3, [r5, #140]	; 0x8c
 80e284a:	2b05      	cmp	r3, #5
 80e284c:	f200 8134 	bhi.w	80e2ab8 <HAL_RCCEx_PeriphCLKConfig+0x790>
 80e2850:	e8df f013 	tbh	[pc, r3, lsl #1]
 80e2854:	0018001d 	.word	0x0018001d
 80e2858:	001d012c 	.word	0x001d012c
 80e285c:	001d001d 	.word	0x001d001d
 80e2860:	2101      	movs	r1, #1
 80e2862:	f105 0024 	add.w	r0, r5, #36	; 0x24
 80e2866:	f7ff fce7 	bl	80e2238 <RCCEx_PLL3_Config>
 80e286a:	e7e0      	b.n	80e282e <HAL_RCCEx_PeriphCLKConfig+0x506>
 80e286c:	2601      	movs	r6, #1
 80e286e:	4634      	mov	r4, r6
 80e2870:	e7e6      	b.n	80e2840 <HAL_RCCEx_PeriphCLKConfig+0x518>
 80e2872:	4626      	mov	r6, r4
 80e2874:	e7e4      	b.n	80e2840 <HAL_RCCEx_PeriphCLKConfig+0x518>
 80e2876:	bf00      	nop
 80e2878:	58024400 	.word	0x58024400
 80e287c:	58024800 	.word	0x58024800
 80e2880:	00ffffcf 	.word	0x00ffffcf
 80e2884:	2101      	movs	r1, #1
 80e2886:	1d28      	adds	r0, r5, #4
 80e2888:	f7ff fc5e 	bl	80e2148 <RCCEx_PLL2_Config>
 80e288c:	4604      	mov	r4, r0
 80e288e:	2c00      	cmp	r4, #0
 80e2890:	f040 8115 	bne.w	80e2abe <HAL_RCCEx_PeriphCLKConfig+0x796>
 80e2894:	4aac      	ldr	r2, [pc, #688]	; (80e2b48 <HAL_RCCEx_PeriphCLKConfig+0x820>)
 80e2896:	f8d5 108c 	ldr.w	r1, [r5, #140]	; 0x8c
 80e289a:	6d93      	ldr	r3, [r2, #88]	; 0x58
 80e289c:	f023 0307 	bic.w	r3, r3, #7
 80e28a0:	430b      	orrs	r3, r1
 80e28a2:	6593      	str	r3, [r2, #88]	; 0x58
 80e28a4:	682b      	ldr	r3, [r5, #0]
 80e28a6:	0698      	lsls	r0, r3, #26
 80e28a8:	d510      	bpl.n	80e28cc <HAL_RCCEx_PeriphCLKConfig+0x5a4>
 80e28aa:	f8d5 3088 	ldr.w	r3, [r5, #136]	; 0x88
 80e28ae:	f1b3 5f00 	cmp.w	r3, #536870912	; 0x20000000
 80e28b2:	f000 811f 	beq.w	80e2af4 <HAL_RCCEx_PeriphCLKConfig+0x7cc>
 80e28b6:	f200 8104 	bhi.w	80e2ac2 <HAL_RCCEx_PeriphCLKConfig+0x79a>
 80e28ba:	2b00      	cmp	r3, #0
 80e28bc:	f000 810a 	beq.w	80e2ad4 <HAL_RCCEx_PeriphCLKConfig+0x7ac>
 80e28c0:	f1b3 5f80 	cmp.w	r3, #268435456	; 0x10000000
 80e28c4:	f000 8110 	beq.w	80e2ae8 <HAL_RCCEx_PeriphCLKConfig+0x7c0>
 80e28c8:	2601      	movs	r6, #1
 80e28ca:	4634      	mov	r4, r6
 80e28cc:	682b      	ldr	r3, [r5, #0]
 80e28ce:	0659      	lsls	r1, r3, #25
 80e28d0:	d510      	bpl.n	80e28f4 <HAL_RCCEx_PeriphCLKConfig+0x5cc>
 80e28d2:	f8d5 3094 	ldr.w	r3, [r5, #148]	; 0x94
 80e28d6:	f5b3 6f00 	cmp.w	r3, #2048	; 0x800
 80e28da:	f000 812c 	beq.w	80e2b36 <HAL_RCCEx_PeriphCLKConfig+0x80e>
 80e28de:	f200 8111 	bhi.w	80e2b04 <HAL_RCCEx_PeriphCLKConfig+0x7dc>
 80e28e2:	2b00      	cmp	r3, #0
 80e28e4:	f000 8117 	beq.w	80e2b16 <HAL_RCCEx_PeriphCLKConfig+0x7ee>
 80e28e8:	f5b3 6f80 	cmp.w	r3, #1024	; 0x400
 80e28ec:	f000 811d 	beq.w	80e2b2a <HAL_RCCEx_PeriphCLKConfig+0x802>
 80e28f0:	2601      	movs	r6, #1
 80e28f2:	4634      	mov	r4, r6
 80e28f4:	682b      	ldr	r3, [r5, #0]
 80e28f6:	061a      	lsls	r2, r3, #24
 80e28f8:	d510      	bpl.n	80e291c <HAL_RCCEx_PeriphCLKConfig+0x5f4>
 80e28fa:	f8d5 3098 	ldr.w	r3, [r5, #152]	; 0x98
 80e28fe:	f5b3 4f80 	cmp.w	r3, #16384	; 0x4000
 80e2902:	f000 813c 	beq.w	80e2b7e <HAL_RCCEx_PeriphCLKConfig+0x856>
 80e2906:	f200 8121 	bhi.w	80e2b4c <HAL_RCCEx_PeriphCLKConfig+0x824>
 80e290a:	2b00      	cmp	r3, #0
 80e290c:	f000 8127 	beq.w	80e2b5e <HAL_RCCEx_PeriphCLKConfig+0x836>
 80e2910:	f5b3 5f00 	cmp.w	r3, #8192	; 0x2000
 80e2914:	f000 812d 	beq.w	80e2b72 <HAL_RCCEx_PeriphCLKConfig+0x84a>
 80e2918:	2601      	movs	r6, #1
 80e291a:	4634      	mov	r4, r6
 80e291c:	682b      	ldr	r3, [r5, #0]
 80e291e:	071b      	lsls	r3, r3, #28
 80e2920:	d512      	bpl.n	80e2948 <HAL_RCCEx_PeriphCLKConfig+0x620>
 80e2922:	6feb      	ldr	r3, [r5, #124]	; 0x7c
 80e2924:	f5b3 5f80 	cmp.w	r3, #4096	; 0x1000
 80e2928:	d107      	bne.n	80e293a <HAL_RCCEx_PeriphCLKConfig+0x612>
 80e292a:	2102      	movs	r1, #2
 80e292c:	f105 0024 	add.w	r0, r5, #36	; 0x24
 80e2930:	f7ff fc82 	bl	80e2238 <RCCEx_PLL3_Config>
 80e2934:	2800      	cmp	r0, #0
 80e2936:	bf18      	it	ne
 80e2938:	2601      	movne	r6, #1
 80e293a:	4a83      	ldr	r2, [pc, #524]	; (80e2b48 <HAL_RCCEx_PeriphCLKConfig+0x820>)
 80e293c:	6fe9      	ldr	r1, [r5, #124]	; 0x7c
 80e293e:	6d53      	ldr	r3, [r2, #84]	; 0x54
 80e2940:	f423 5340 	bic.w	r3, r3, #12288	; 0x3000
 80e2944:	430b      	orrs	r3, r1
 80e2946:	6553      	str	r3, [r2, #84]	; 0x54
 80e2948:	682b      	ldr	r3, [r5, #0]
 80e294a:	06df      	lsls	r7, r3, #27
 80e294c:	d514      	bpl.n	80e2978 <HAL_RCCEx_PeriphCLKConfig+0x650>
 80e294e:	f8d5 3090 	ldr.w	r3, [r5, #144]	; 0x90
 80e2952:	f5b3 7f80 	cmp.w	r3, #256	; 0x100
 80e2956:	d107      	bne.n	80e2968 <HAL_RCCEx_PeriphCLKConfig+0x640>
 80e2958:	2102      	movs	r1, #2
 80e295a:	f105 0024 	add.w	r0, r5, #36	; 0x24
 80e295e:	f7ff fc6b 	bl	80e2238 <RCCEx_PLL3_Config>
 80e2962:	2800      	cmp	r0, #0
 80e2964:	bf18      	it	ne
 80e2966:	2601      	movne	r6, #1
 80e2968:	4a77      	ldr	r2, [pc, #476]	; (80e2b48 <HAL_RCCEx_PeriphCLKConfig+0x820>)
 80e296a:	f8d5 1090 	ldr.w	r1, [r5, #144]	; 0x90
 80e296e:	6d93      	ldr	r3, [r2, #88]	; 0x58
 80e2970:	f423 7340 	bic.w	r3, r3, #768	; 0x300
 80e2974:	430b      	orrs	r3, r1
 80e2976:	6593      	str	r3, [r2, #88]	; 0x58
 80e2978:	682b      	ldr	r3, [r5, #0]
 80e297a:	0318      	lsls	r0, r3, #12
 80e297c:	d51a      	bpl.n	80e29b4 <HAL_RCCEx_PeriphCLKConfig+0x68c>
 80e297e:	f8d5 109c 	ldr.w	r1, [r5, #156]	; 0x9c
 80e2982:	f5b1 3f80 	cmp.w	r1, #65536	; 0x10000
 80e2986:	f000 8102 	beq.w	80e2b8e <HAL_RCCEx_PeriphCLKConfig+0x866>
 80e298a:	f5b1 3f00 	cmp.w	r1, #131072	; 0x20000
 80e298e:	d006      	beq.n	80e299e <HAL_RCCEx_PeriphCLKConfig+0x676>
 80e2990:	2900      	cmp	r1, #0
 80e2992:	f040 8102 	bne.w	80e2b9a <HAL_RCCEx_PeriphCLKConfig+0x872>
 80e2996:	1d28      	adds	r0, r5, #4
 80e2998:	f7ff fbd6 	bl	80e2148 <RCCEx_PLL2_Config>
 80e299c:	4604      	mov	r4, r0
 80e299e:	2c00      	cmp	r4, #0
 80e29a0:	f040 80fe 	bne.w	80e2ba0 <HAL_RCCEx_PeriphCLKConfig+0x878>
 80e29a4:	4a68      	ldr	r2, [pc, #416]	; (80e2b48 <HAL_RCCEx_PeriphCLKConfig+0x820>)
 80e29a6:	f8d5 109c 	ldr.w	r1, [r5, #156]	; 0x9c
 80e29aa:	6d93      	ldr	r3, [r2, #88]	; 0x58
 80e29ac:	f423 3340 	bic.w	r3, r3, #196608	; 0x30000
 80e29b0:	430b      	orrs	r3, r1
 80e29b2:	6593      	str	r3, [r2, #88]	; 0x58
 80e29b4:	682b      	ldr	r3, [r5, #0]
 80e29b6:	0359      	lsls	r1, r3, #13
 80e29b8:	d51c      	bpl.n	80e29f4 <HAL_RCCEx_PeriphCLKConfig+0x6cc>
 80e29ba:	f8d5 3080 	ldr.w	r3, [r5, #128]	; 0x80
 80e29be:	f5b3 1f00 	cmp.w	r3, #2097152	; 0x200000
 80e29c2:	f000 80ef 	beq.w	80e2ba4 <HAL_RCCEx_PeriphCLKConfig+0x87c>
 80e29c6:	f5b3 1f40 	cmp.w	r3, #3145728	; 0x300000
 80e29ca:	d008      	beq.n	80e29de <HAL_RCCEx_PeriphCLKConfig+0x6b6>
 80e29cc:	f5b3 1f80 	cmp.w	r3, #1048576	; 0x100000
 80e29d0:	f040 80ef 	bne.w	80e2bb2 <HAL_RCCEx_PeriphCLKConfig+0x88a>
 80e29d4:	4a5c      	ldr	r2, [pc, #368]	; (80e2b48 <HAL_RCCEx_PeriphCLKConfig+0x820>)
 80e29d6:	6ad3      	ldr	r3, [r2, #44]	; 0x2c
 80e29d8:	f443 3300 	orr.w	r3, r3, #131072	; 0x20000
 80e29dc:	62d3      	str	r3, [r2, #44]	; 0x2c
 80e29de:	2c00      	cmp	r4, #0
 80e29e0:	f040 80ea 	bne.w	80e2bb8 <HAL_RCCEx_PeriphCLKConfig+0x890>
 80e29e4:	4a58      	ldr	r2, [pc, #352]	; (80e2b48 <HAL_RCCEx_PeriphCLKConfig+0x820>)
 80e29e6:	f8d5 1080 	ldr.w	r1, [r5, #128]	; 0x80
 80e29ea:	6d53      	ldr	r3, [r2, #84]	; 0x54
 80e29ec:	f423 1340 	bic.w	r3, r3, #3145728	; 0x300000
 80e29f0:	430b      	orrs	r3, r1
 80e29f2:	6553      	str	r3, [r2, #84]	; 0x54
 80e29f4:	682b      	ldr	r3, [r5, #0]
 80e29f6:	03da      	lsls	r2, r3, #15
 80e29f8:	d509      	bpl.n	80e2a0e <HAL_RCCEx_PeriphCLKConfig+0x6e6>
 80e29fa:	6ceb      	ldr	r3, [r5, #76]	; 0x4c
 80e29fc:	2b00      	cmp	r3, #0
 80e29fe:	f000 80dd 	beq.w	80e2bbc <HAL_RCCEx_PeriphCLKConfig+0x894>
 80e2a02:	f5b3 3f80 	cmp.w	r3, #65536	; 0x10000
 80e2a06:	f000 80e7 	beq.w	80e2bd8 <HAL_RCCEx_PeriphCLKConfig+0x8b0>
 80e2a0a:	2601      	movs	r6, #1
 80e2a0c:	4634      	mov	r4, r6
 80e2a0e:	682b      	ldr	r3, [r5, #0]
 80e2a10:	009b      	lsls	r3, r3, #2
 80e2a12:	d507      	bpl.n	80e2a24 <HAL_RCCEx_PeriphCLKConfig+0x6fc>
 80e2a14:	2102      	movs	r1, #2
 80e2a16:	f105 0024 	add.w	r0, r5, #36	; 0x24
 80e2a1a:	f7ff fc0d 	bl	80e2238 <RCCEx_PLL3_Config>
 80e2a1e:	2800      	cmp	r0, #0
 80e2a20:	bf18      	it	ne
 80e2a22:	2601      	movne	r6, #1
 80e2a24:	682b      	ldr	r3, [r5, #0]
 80e2a26:	039f      	lsls	r7, r3, #14
 80e2a28:	d50a      	bpl.n	80e2a40 <HAL_RCCEx_PeriphCLKConfig+0x718>
 80e2a2a:	6fa9      	ldr	r1, [r5, #120]	; 0x78
 80e2a2c:	f5b1 7f80 	cmp.w	r1, #256	; 0x100
 80e2a30:	f000 80e8 	beq.w	80e2c04 <HAL_RCCEx_PeriphCLKConfig+0x8dc>
 80e2a34:	f200 80d8 	bhi.w	80e2be8 <HAL_RCCEx_PeriphCLKConfig+0x8c0>
 80e2a38:	2900      	cmp	r1, #0
 80e2a3a:	f000 80db 	beq.w	80e2bf4 <HAL_RCCEx_PeriphCLKConfig+0x8cc>
 80e2a3e:	2601      	movs	r6, #1
 80e2a40:	02d8      	lsls	r0, r3, #11
 80e2a42:	d506      	bpl.n	80e2a52 <HAL_RCCEx_PeriphCLKConfig+0x72a>
 80e2a44:	4940      	ldr	r1, [pc, #256]	; (80e2b48 <HAL_RCCEx_PeriphCLKConfig+0x820>)
 80e2a46:	6ee8      	ldr	r0, [r5, #108]	; 0x6c
 80e2a48:	6d0a      	ldr	r2, [r1, #80]	; 0x50
 80e2a4a:	f022 4200 	bic.w	r2, r2, #2147483648	; 0x80000000
 80e2a4e:	4302      	orrs	r2, r0
 80e2a50:	650a      	str	r2, [r1, #80]	; 0x50
 80e2a52:	0299      	lsls	r1, r3, #10
 80e2a54:	d506      	bpl.n	80e2a64 <HAL_RCCEx_PeriphCLKConfig+0x73c>
 80e2a56:	493c      	ldr	r1, [pc, #240]	; (80e2b48 <HAL_RCCEx_PeriphCLKConfig+0x820>)
 80e2a58:	6e68      	ldr	r0, [r5, #100]	; 0x64
 80e2a5a:	6d0a      	ldr	r2, [r1, #80]	; 0x50
 80e2a5c:	f022 7280 	bic.w	r2, r2, #16777216	; 0x1000000
 80e2a60:	4302      	orrs	r2, r0
 80e2a62:	650a      	str	r2, [r1, #80]	; 0x50
 80e2a64:	005a      	lsls	r2, r3, #1
 80e2a66:	d509      	bpl.n	80e2a7c <HAL_RCCEx_PeriphCLKConfig+0x754>
 80e2a68:	4a37      	ldr	r2, [pc, #220]	; (80e2b48 <HAL_RCCEx_PeriphCLKConfig+0x820>)
 80e2a6a:	6911      	ldr	r1, [r2, #16]
 80e2a6c:	f421 4100 	bic.w	r1, r1, #32768	; 0x8000
 80e2a70:	6111      	str	r1, [r2, #16]
 80e2a72:	6911      	ldr	r1, [r2, #16]
 80e2a74:	f8d5 00b0 	ldr.w	r0, [r5, #176]	; 0xb0
 80e2a78:	4301      	orrs	r1, r0
 80e2a7a:	6111      	str	r1, [r2, #16]
 80e2a7c:	2b00      	cmp	r3, #0
 80e2a7e:	da06      	bge.n	80e2a8e <HAL_RCCEx_PeriphCLKConfig+0x766>
 80e2a80:	4931      	ldr	r1, [pc, #196]	; (80e2b48 <HAL_RCCEx_PeriphCLKConfig+0x820>)
 80e2a82:	6d28      	ldr	r0, [r5, #80]	; 0x50
 80e2a84:	6cca      	ldr	r2, [r1, #76]	; 0x4c
 80e2a86:	f022 5240 	bic.w	r2, r2, #805306368	; 0x30000000
 80e2a8a:	4302      	orrs	r2, r0
 80e2a8c:	64ca      	str	r2, [r1, #76]	; 0x4c
 80e2a8e:	021b      	lsls	r3, r3, #8
 80e2a90:	d507      	bpl.n	80e2aa2 <HAL_RCCEx_PeriphCLKConfig+0x77a>
 80e2a92:	4a2d      	ldr	r2, [pc, #180]	; (80e2b48 <HAL_RCCEx_PeriphCLKConfig+0x820>)
 80e2a94:	f8d5 1084 	ldr.w	r1, [r5, #132]	; 0x84
 80e2a98:	6d53      	ldr	r3, [r2, #84]	; 0x54
 80e2a9a:	f423 0340 	bic.w	r3, r3, #12582912	; 0xc00000
 80e2a9e:	430b      	orrs	r3, r1
 80e2aa0:	6553      	str	r3, [r2, #84]	; 0x54
 80e2aa2:	1e30      	subs	r0, r6, #0
 80e2aa4:	bf18      	it	ne
 80e2aa6:	2001      	movne	r0, #1
 80e2aa8:	e8bd 83f8 	ldmia.w	sp!, {r3, r4, r5, r6, r7, r8, r9, pc}
 80e2aac:	2101      	movs	r1, #1
 80e2aae:	f105 0024 	add.w	r0, r5, #36	; 0x24
 80e2ab2:	f7ff fbc1 	bl	80e2238 <RCCEx_PLL3_Config>
 80e2ab6:	e6e9      	b.n	80e288c <HAL_RCCEx_PeriphCLKConfig+0x564>
 80e2ab8:	2601      	movs	r6, #1
 80e2aba:	4634      	mov	r4, r6
 80e2abc:	e6f2      	b.n	80e28a4 <HAL_RCCEx_PeriphCLKConfig+0x57c>
 80e2abe:	4626      	mov	r6, r4
 80e2ac0:	e6f0      	b.n	80e28a4 <HAL_RCCEx_PeriphCLKConfig+0x57c>
 80e2ac2:	f023 5280 	bic.w	r2, r3, #268435456	; 0x10000000
 80e2ac6:	f1b2 4f80 	cmp.w	r2, #1073741824	; 0x40000000
 80e2aca:	d003      	beq.n	80e2ad4 <HAL_RCCEx_PeriphCLKConfig+0x7ac>
 80e2acc:	f1b3 5f40 	cmp.w	r3, #805306368	; 0x30000000
 80e2ad0:	f47f aefa 	bne.w	80e28c8 <HAL_RCCEx_PeriphCLKConfig+0x5a0>
 80e2ad4:	b9a4      	cbnz	r4, 80e2b00 <HAL_RCCEx_PeriphCLKConfig+0x7d8>
 80e2ad6:	4a1c      	ldr	r2, [pc, #112]	; (80e2b48 <HAL_RCCEx_PeriphCLKConfig+0x820>)
 80e2ad8:	f8d5 1088 	ldr.w	r1, [r5, #136]	; 0x88
 80e2adc:	6d53      	ldr	r3, [r2, #84]	; 0x54
 80e2ade:	f023 43e0 	bic.w	r3, r3, #1879048192	; 0x70000000
 80e2ae2:	430b      	orrs	r3, r1
 80e2ae4:	6553      	str	r3, [r2, #84]	; 0x54
 80e2ae6:	e6f1      	b.n	80e28cc <HAL_RCCEx_PeriphCLKConfig+0x5a4>
 80e2ae8:	2100      	movs	r1, #0
 80e2aea:	1d28      	adds	r0, r5, #4
 80e2aec:	f7ff fb2c 	bl	80e2148 <RCCEx_PLL2_Config>
 80e2af0:	4604      	mov	r4, r0
 80e2af2:	e7ef      	b.n	80e2ad4 <HAL_RCCEx_PeriphCLKConfig+0x7ac>
 80e2af4:	2102      	movs	r1, #2
 80e2af6:	f105 0024 	add.w	r0, r5, #36	; 0x24
 80e2afa:	f7ff fb9d 	bl	80e2238 <RCCEx_PLL3_Config>
 80e2afe:	e7f7      	b.n	80e2af0 <HAL_RCCEx_PeriphCLKConfig+0x7c8>
 80e2b00:	4626      	mov	r6, r4
 80e2b02:	e6e3      	b.n	80e28cc <HAL_RCCEx_PeriphCLKConfig+0x5a4>
 80e2b04:	f423 6280 	bic.w	r2, r3, #1024	; 0x400
 80e2b08:	f5b2 5f80 	cmp.w	r2, #4096	; 0x1000
 80e2b0c:	d003      	beq.n	80e2b16 <HAL_RCCEx_PeriphCLKConfig+0x7ee>
 80e2b0e:	f5b3 6f40 	cmp.w	r3, #3072	; 0xc00
 80e2b12:	f47f aeed 	bne.w	80e28f0 <HAL_RCCEx_PeriphCLKConfig+0x5c8>
 80e2b16:	b9a4      	cbnz	r4, 80e2b42 <HAL_RCCEx_PeriphCLKConfig+0x81a>
 80e2b18:	4a0b      	ldr	r2, [pc, #44]	; (80e2b48 <HAL_RCCEx_PeriphCLKConfig+0x820>)
 80e2b1a:	f8d5 1094 	ldr.w	r1, [r5, #148]	; 0x94
 80e2b1e:	6d93      	ldr	r3, [r2, #88]	; 0x58
 80e2b20:	f423 53e0 	bic.w	r3, r3, #7168	; 0x1c00
 80e2b24:	430b      	orrs	r3, r1
 80e2b26:	6593      	str	r3, [r2, #88]	; 0x58
 80e2b28:	e6e4      	b.n	80e28f4 <HAL_RCCEx_PeriphCLKConfig+0x5cc>
 80e2b2a:	2100      	movs	r1, #0
 80e2b2c:	1d28      	adds	r0, r5, #4
 80e2b2e:	f7ff fb0b 	bl	80e2148 <RCCEx_PLL2_Config>
 80e2b32:	4604      	mov	r4, r0
 80e2b34:	e7ef      	b.n	80e2b16 <HAL_RCCEx_PeriphCLKConfig+0x7ee>
 80e2b36:	2102      	movs	r1, #2
 80e2b38:	f105 0024 	add.w	r0, r5, #36	; 0x24
 80e2b3c:	f7ff fb7c 	bl	80e2238 <RCCEx_PLL3_Config>
 80e2b40:	e7f7      	b.n	80e2b32 <HAL_RCCEx_PeriphCLKConfig+0x80a>
 80e2b42:	4626      	mov	r6, r4
 80e2b44:	e6d6      	b.n	80e28f4 <HAL_RCCEx_PeriphCLKConfig+0x5cc>
 80e2b46:	bf00      	nop
 80e2b48:	58024400 	.word	0x58024400
 80e2b4c:	f423 5200 	bic.w	r2, r3, #8192	; 0x2000
 80e2b50:	f5b2 4f00 	cmp.w	r2, #32768	; 0x8000
 80e2b54:	d003      	beq.n	80e2b5e <HAL_RCCEx_PeriphCLKConfig+0x836>
 80e2b56:	f5b3 4fc0 	cmp.w	r3, #24576	; 0x6000
 80e2b5a:	f47f aedd 	bne.w	80e2918 <HAL_RCCEx_PeriphCLKConfig+0x5f0>
 80e2b5e:	b9a4      	cbnz	r4, 80e2b8a <HAL_RCCEx_PeriphCLKConfig+0x862>
 80e2b60:	4a2c      	ldr	r2, [pc, #176]	; (80e2c14 <HAL_RCCEx_PeriphCLKConfig+0x8ec>)
 80e2b62:	f8d5 1098 	ldr.w	r1, [r5, #152]	; 0x98
 80e2b66:	6d93      	ldr	r3, [r2, #88]	; 0x58
 80e2b68:	f423 4360 	bic.w	r3, r3, #57344	; 0xe000
 80e2b6c:	430b      	orrs	r3, r1
 80e2b6e:	6593      	str	r3, [r2, #88]	; 0x58
 80e2b70:	e6d4      	b.n	80e291c <HAL_RCCEx_PeriphCLKConfig+0x5f4>
 80e2b72:	2100      	movs	r1, #0
 80e2b74:	1d28      	adds	r0, r5, #4
 80e2b76:	f7ff fae7 	bl	80e2148 <RCCEx_PLL2_Config>
 80e2b7a:	4604      	mov	r4, r0
 80e2b7c:	e7ef      	b.n	80e2b5e <HAL_RCCEx_PeriphCLKConfig+0x836>
 80e2b7e:	2102      	movs	r1, #2
 80e2b80:	f105 0024 	add.w	r0, r5, #36	; 0x24
 80e2b84:	f7ff fb58 	bl	80e2238 <RCCEx_PLL3_Config>
 80e2b88:	e7f7      	b.n	80e2b7a <HAL_RCCEx_PeriphCLKConfig+0x852>
 80e2b8a:	4626      	mov	r6, r4
 80e2b8c:	e6c6      	b.n	80e291c <HAL_RCCEx_PeriphCLKConfig+0x5f4>
 80e2b8e:	2102      	movs	r1, #2
 80e2b90:	f105 0024 	add.w	r0, r5, #36	; 0x24
 80e2b94:	f7ff fb50 	bl	80e2238 <RCCEx_PLL3_Config>
 80e2b98:	e700      	b.n	80e299c <HAL_RCCEx_PeriphCLKConfig+0x674>
 80e2b9a:	2601      	movs	r6, #1
 80e2b9c:	4634      	mov	r4, r6
 80e2b9e:	e709      	b.n	80e29b4 <HAL_RCCEx_PeriphCLKConfig+0x68c>
 80e2ba0:	4626      	mov	r6, r4
 80e2ba2:	e707      	b.n	80e29b4 <HAL_RCCEx_PeriphCLKConfig+0x68c>
 80e2ba4:	2101      	movs	r1, #1
 80e2ba6:	f105 0024 	add.w	r0, r5, #36	; 0x24
 80e2baa:	f7ff fb45 	bl	80e2238 <RCCEx_PLL3_Config>
 80e2bae:	4604      	mov	r4, r0
 80e2bb0:	e715      	b.n	80e29de <HAL_RCCEx_PeriphCLKConfig+0x6b6>
 80e2bb2:	2601      	movs	r6, #1
 80e2bb4:	4634      	mov	r4, r6
 80e2bb6:	e71d      	b.n	80e29f4 <HAL_RCCEx_PeriphCLKConfig+0x6cc>
 80e2bb8:	4626      	mov	r6, r4
 80e2bba:	e71b      	b.n	80e29f4 <HAL_RCCEx_PeriphCLKConfig+0x6cc>
 80e2bbc:	4a15      	ldr	r2, [pc, #84]	; (80e2c14 <HAL_RCCEx_PeriphCLKConfig+0x8ec>)
 80e2bbe:	6ad3      	ldr	r3, [r2, #44]	; 0x2c
 80e2bc0:	f443 3300 	orr.w	r3, r3, #131072	; 0x20000
 80e2bc4:	62d3      	str	r3, [r2, #44]	; 0x2c
 80e2bc6:	b96c      	cbnz	r4, 80e2be4 <HAL_RCCEx_PeriphCLKConfig+0x8bc>
 80e2bc8:	4a12      	ldr	r2, [pc, #72]	; (80e2c14 <HAL_RCCEx_PeriphCLKConfig+0x8ec>)
 80e2bca:	6ce9      	ldr	r1, [r5, #76]	; 0x4c
 80e2bcc:	6cd3      	ldr	r3, [r2, #76]	; 0x4c
 80e2bce:	f423 3380 	bic.w	r3, r3, #65536	; 0x10000
 80e2bd2:	430b      	orrs	r3, r1
 80e2bd4:	64d3      	str	r3, [r2, #76]	; 0x4c
 80e2bd6:	e71a      	b.n	80e2a0e <HAL_RCCEx_PeriphCLKConfig+0x6e6>
 80e2bd8:	2102      	movs	r1, #2
 80e2bda:	1d28      	adds	r0, r5, #4
 80e2bdc:	f7ff fab4 	bl	80e2148 <RCCEx_PLL2_Config>
 80e2be0:	4604      	mov	r4, r0
 80e2be2:	e7f0      	b.n	80e2bc6 <HAL_RCCEx_PeriphCLKConfig+0x89e>
 80e2be4:	4626      	mov	r6, r4
 80e2be6:	e712      	b.n	80e2a0e <HAL_RCCEx_PeriphCLKConfig+0x6e6>
 80e2be8:	f421 7280 	bic.w	r2, r1, #256	; 0x100
 80e2bec:	f5b2 7f00 	cmp.w	r2, #512	; 0x200
 80e2bf0:	f47f af25 	bne.w	80e2a3e <HAL_RCCEx_PeriphCLKConfig+0x716>
 80e2bf4:	b964      	cbnz	r4, 80e2c10 <HAL_RCCEx_PeriphCLKConfig+0x8e8>
 80e2bf6:	4807      	ldr	r0, [pc, #28]	; (80e2c14 <HAL_RCCEx_PeriphCLKConfig+0x8ec>)
 80e2bf8:	6d42      	ldr	r2, [r0, #84]	; 0x54
 80e2bfa:	f422 7240 	bic.w	r2, r2, #768	; 0x300
 80e2bfe:	430a      	orrs	r2, r1
 80e2c00:	6542      	str	r2, [r0, #84]	; 0x54
 80e2c02:	e71d      	b.n	80e2a40 <HAL_RCCEx_PeriphCLKConfig+0x718>
 80e2c04:	4803      	ldr	r0, [pc, #12]	; (80e2c14 <HAL_RCCEx_PeriphCLKConfig+0x8ec>)
 80e2c06:	6ac2      	ldr	r2, [r0, #44]	; 0x2c
 80e2c08:	f442 3200 	orr.w	r2, r2, #131072	; 0x20000
 80e2c0c:	62c2      	str	r2, [r0, #44]	; 0x2c
 80e2c0e:	e7f1      	b.n	80e2bf4 <HAL_RCCEx_PeriphCLKConfig+0x8cc>
 80e2c10:	4626      	mov	r6, r4
 80e2c12:	e715      	b.n	80e2a40 <HAL_RCCEx_PeriphCLKConfig+0x718>
 80e2c14:	58024400 	.word	0x58024400

080e2c18 <HAL_TIM_Base_Start>:
 80e2c18:	f890 303d 	ldrb.w	r3, [r0, #61]	; 0x3d
 80e2c1c:	2b01      	cmp	r3, #1
 80e2c1e:	d137      	bne.n	80e2c90 <HAL_TIM_Base_Start+0x78>
 80e2c20:	2302      	movs	r3, #2
 80e2c22:	4a1c      	ldr	r2, [pc, #112]	; (80e2c94 <HAL_TIM_Base_Start+0x7c>)
 80e2c24:	f880 303d 	strb.w	r3, [r0, #61]	; 0x3d
 80e2c28:	6803      	ldr	r3, [r0, #0]
 80e2c2a:	4293      	cmp	r3, r2
 80e2c2c:	d022      	beq.n	80e2c74 <HAL_TIM_Base_Start+0x5c>
 80e2c2e:	f1b3 4f80 	cmp.w	r3, #1073741824	; 0x40000000
 80e2c32:	d01f      	beq.n	80e2c74 <HAL_TIM_Base_Start+0x5c>
 80e2c34:	f5a2 427c 	sub.w	r2, r2, #64512	; 0xfc00
 80e2c38:	4293      	cmp	r3, r2
 80e2c3a:	d01b      	beq.n	80e2c74 <HAL_TIM_Base_Start+0x5c>
 80e2c3c:	f502 6280 	add.w	r2, r2, #1024	; 0x400
 80e2c40:	4293      	cmp	r3, r2
 80e2c42:	d017      	beq.n	80e2c74 <HAL_TIM_Base_Start+0x5c>
 80e2c44:	f502 6280 	add.w	r2, r2, #1024	; 0x400
 80e2c48:	4293      	cmp	r3, r2
 80e2c4a:	d013      	beq.n	80e2c74 <HAL_TIM_Base_Start+0x5c>
 80e2c4c:	f502 4278 	add.w	r2, r2, #63488	; 0xf800
 80e2c50:	4293      	cmp	r3, r2
 80e2c52:	d00f      	beq.n	80e2c74 <HAL_TIM_Base_Start+0x5c>
 80e2c54:	f5a2 426c 	sub.w	r2, r2, #60416	; 0xec00
 80e2c58:	4293      	cmp	r3, r2
 80e2c5a:	d00b      	beq.n	80e2c74 <HAL_TIM_Base_Start+0x5c>
 80e2c5c:	f502 3294 	add.w	r2, r2, #75776	; 0x12800
 80e2c60:	4293      	cmp	r3, r2
 80e2c62:	d007      	beq.n	80e2c74 <HAL_TIM_Base_Start+0x5c>
 80e2c64:	f5a2 42c0 	sub.w	r2, r2, #24576	; 0x6000
 80e2c68:	4293      	cmp	r3, r2
 80e2c6a:	d003      	beq.n	80e2c74 <HAL_TIM_Base_Start+0x5c>
 80e2c6c:	f502 6280 	add.w	r2, r2, #1024	; 0x400
 80e2c70:	4293      	cmp	r3, r2
 80e2c72:	d107      	bne.n	80e2c84 <HAL_TIM_Base_Start+0x6c>
 80e2c74:	6899      	ldr	r1, [r3, #8]
 80e2c76:	4a08      	ldr	r2, [pc, #32]	; (80e2c98 <HAL_TIM_Base_Start+0x80>)
 80e2c78:	400a      	ands	r2, r1
 80e2c7a:	2a06      	cmp	r2, #6
 80e2c7c:	d006      	beq.n	80e2c8c <HAL_TIM_Base_Start+0x74>
 80e2c7e:	f5b2 3f80 	cmp.w	r2, #65536	; 0x10000
 80e2c82:	d003      	beq.n	80e2c8c <HAL_TIM_Base_Start+0x74>
 80e2c84:	681a      	ldr	r2, [r3, #0]
 80e2c86:	f042 0201 	orr.w	r2, r2, #1
 80e2c8a:	601a      	str	r2, [r3, #0]
 80e2c8c:	2000      	movs	r0, #0
 80e2c8e:	4770      	bx	lr
 80e2c90:	2001      	movs	r0, #1
 80e2c92:	4770      	bx	lr
 80e2c94:	40010000 	.word	0x40010000
 80e2c98:	00010007 	.word	0x00010007

080e2c9c <TIM_Base_SetConfig>:
 80e2c9c:	4a34      	ldr	r2, [pc, #208]	; (80e2d70 <TIM_Base_SetConfig+0xd4>)
 80e2c9e:	6803      	ldr	r3, [r0, #0]
 80e2ca0:	4290      	cmp	r0, r2
 80e2ca2:	d012      	beq.n	80e2cca <TIM_Base_SetConfig+0x2e>
 80e2ca4:	f1b0 4f80 	cmp.w	r0, #1073741824	; 0x40000000
 80e2ca8:	d00f      	beq.n	80e2cca <TIM_Base_SetConfig+0x2e>
 80e2caa:	f5a2 427c 	sub.w	r2, r2, #64512	; 0xfc00
 80e2cae:	4290      	cmp	r0, r2
 80e2cb0:	d00b      	beq.n	80e2cca <TIM_Base_SetConfig+0x2e>
 80e2cb2:	f502 6280 	add.w	r2, r2, #1024	; 0x400
 80e2cb6:	4290      	cmp	r0, r2
 80e2cb8:	d007      	beq.n	80e2cca <TIM_Base_SetConfig+0x2e>
 80e2cba:	f502 6280 	add.w	r2, r2, #1024	; 0x400
 80e2cbe:	4290      	cmp	r0, r2
 80e2cc0:	d003      	beq.n	80e2cca <TIM_Base_SetConfig+0x2e>
 80e2cc2:	f502 4278 	add.w	r2, r2, #63488	; 0xf800
 80e2cc6:	4290      	cmp	r0, r2
 80e2cc8:	d119      	bne.n	80e2cfe <TIM_Base_SetConfig+0x62>
 80e2cca:	684a      	ldr	r2, [r1, #4]
 80e2ccc:	f023 0370 	bic.w	r3, r3, #112	; 0x70
 80e2cd0:	4313      	orrs	r3, r2
 80e2cd2:	4a27      	ldr	r2, [pc, #156]	; (80e2d70 <TIM_Base_SetConfig+0xd4>)
 80e2cd4:	4290      	cmp	r0, r2
 80e2cd6:	d025      	beq.n	80e2d24 <TIM_Base_SetConfig+0x88>
 80e2cd8:	f1b0 4f80 	cmp.w	r0, #1073741824	; 0x40000000
 80e2cdc:	d022      	beq.n	80e2d24 <TIM_Base_SetConfig+0x88>
 80e2cde:	f5a2 427c 	sub.w	r2, r2, #64512	; 0xfc00
 80e2ce2:	4290      	cmp	r0, r2
 80e2ce4:	d01e      	beq.n	80e2d24 <TIM_Base_SetConfig+0x88>
 80e2ce6:	f502 6280 	add.w	r2, r2, #1024	; 0x400
 80e2cea:	4290      	cmp	r0, r2
 80e2cec:	d01a      	beq.n	80e2d24 <TIM_Base_SetConfig+0x88>
 80e2cee:	f502 6280 	add.w	r2, r2, #1024	; 0x400
 80e2cf2:	4290      	cmp	r0, r2
 80e2cf4:	d016      	beq.n	80e2d24 <TIM_Base_SetConfig+0x88>
 80e2cf6:	f502 4278 	add.w	r2, r2, #63488	; 0xf800
 80e2cfa:	4290      	cmp	r0, r2
 80e2cfc:	d012      	beq.n	80e2d24 <TIM_Base_SetConfig+0x88>
 80e2cfe:	4a1d      	ldr	r2, [pc, #116]	; (80e2d74 <TIM_Base_SetConfig+0xd8>)
 80e2d00:	4290      	cmp	r0, r2
 80e2d02:	d00f      	beq.n	80e2d24 <TIM_Base_SetConfig+0x88>
 80e2d04:	f502 6280 	add.w	r2, r2, #1024	; 0x400
 80e2d08:	4290      	cmp	r0, r2
 80e2d0a:	d00b      	beq.n	80e2d24 <TIM_Base_SetConfig+0x88>
 80e2d0c:	f502 6280 	add.w	r2, r2, #1024	; 0x400
 80e2d10:	4290      	cmp	r0, r2
 80e2d12:	d007      	beq.n	80e2d24 <TIM_Base_SetConfig+0x88>
 80e2d14:	f5a2 42d0 	sub.w	r2, r2, #26624	; 0x6800
 80e2d18:	4290      	cmp	r0, r2
 80e2d1a:	d003      	beq.n	80e2d24 <TIM_Base_SetConfig+0x88>
 80e2d1c:	f502 6280 	add.w	r2, r2, #1024	; 0x400
 80e2d20:	4290      	cmp	r0, r2
 80e2d22:	d103      	bne.n	80e2d2c <TIM_Base_SetConfig+0x90>
 80e2d24:	f423 7340 	bic.w	r3, r3, #768	; 0x300
 80e2d28:	68ca      	ldr	r2, [r1, #12]
 80e2d2a:	4313      	orrs	r3, r2
 80e2d2c:	694a      	ldr	r2, [r1, #20]
 80e2d2e:	f023 0380 	bic.w	r3, r3, #128	; 0x80
 80e2d32:	4313      	orrs	r3, r2
 80e2d34:	6003      	str	r3, [r0, #0]
 80e2d36:	688b      	ldr	r3, [r1, #8]
 80e2d38:	62c3      	str	r3, [r0, #44]	; 0x2c
 80e2d3a:	680b      	ldr	r3, [r1, #0]
 80e2d3c:	6283      	str	r3, [r0, #40]	; 0x28
 80e2d3e:	4b0c      	ldr	r3, [pc, #48]	; (80e2d70 <TIM_Base_SetConfig+0xd4>)
 80e2d40:	4298      	cmp	r0, r3
 80e2d42:	d00f      	beq.n	80e2d64 <TIM_Base_SetConfig+0xc8>
 80e2d44:	f503 6380 	add.w	r3, r3, #1024	; 0x400
 80e2d48:	4298      	cmp	r0, r3
 80e2d4a:	d00b      	beq.n	80e2d64 <TIM_Base_SetConfig+0xc8>
 80e2d4c:	f503 5370 	add.w	r3, r3, #15360	; 0x3c00
 80e2d50:	4298      	cmp	r0, r3
 80e2d52:	d007      	beq.n	80e2d64 <TIM_Base_SetConfig+0xc8>
 80e2d54:	f503 6380 	add.w	r3, r3, #1024	; 0x400
 80e2d58:	4298      	cmp	r0, r3
 80e2d5a:	d003      	beq.n	80e2d64 <TIM_Base_SetConfig+0xc8>
 80e2d5c:	f503 6380 	add.w	r3, r3, #1024	; 0x400
 80e2d60:	4298      	cmp	r0, r3
 80e2d62:	d101      	bne.n	80e2d68 <TIM_Base_SetConfig+0xcc>
 80e2d64:	690b      	ldr	r3, [r1, #16]
 80e2d66:	6303      	str	r3, [r0, #48]	; 0x30
 80e2d68:	2301      	movs	r3, #1
 80e2d6a:	6143      	str	r3, [r0, #20]
 80e2d6c:	4770      	bx	lr
 80e2d6e:	bf00      	nop
 80e2d70:	40010000 	.word	0x40010000
 80e2d74:	40014000 	.word	0x40014000

080e2d78 <HAL_TIM_Base_Init>:
 80e2d78:	b510      	push	{r4, lr}
 80e2d7a:	4604      	mov	r4, r0
 80e2d7c:	b350      	cbz	r0, 80e2dd4 <HAL_TIM_Base_Init+0x5c>
 80e2d7e:	f890 303d 	ldrb.w	r3, [r0, #61]	; 0x3d
 80e2d82:	f003 02ff 	and.w	r2, r3, #255	; 0xff
 80e2d86:	b91b      	cbnz	r3, 80e2d90 <HAL_TIM_Base_Init+0x18>
 80e2d88:	f880 203c 	strb.w	r2, [r0, #60]	; 0x3c
 80e2d8c:	f7fd febc 	bl	80e0b08 <HAL_TIM_Base_MspInit>
 80e2d90:	2302      	movs	r3, #2
 80e2d92:	6820      	ldr	r0, [r4, #0]
 80e2d94:	1d21      	adds	r1, r4, #4
 80e2d96:	f884 303d 	strb.w	r3, [r4, #61]	; 0x3d
 80e2d9a:	f7ff ff7f 	bl	80e2c9c <TIM_Base_SetConfig>
 80e2d9e:	2301      	movs	r3, #1
 80e2da0:	2000      	movs	r0, #0
 80e2da2:	f884 3048 	strb.w	r3, [r4, #72]	; 0x48
 80e2da6:	f884 303e 	strb.w	r3, [r4, #62]	; 0x3e
 80e2daa:	f884 303f 	strb.w	r3, [r4, #63]	; 0x3f
 80e2dae:	f884 3040 	strb.w	r3, [r4, #64]	; 0x40
 80e2db2:	f884 3041 	strb.w	r3, [r4, #65]	; 0x41
 80e2db6:	f884 3042 	strb.w	r3, [r4, #66]	; 0x42
 80e2dba:	f884 3043 	strb.w	r3, [r4, #67]	; 0x43
 80e2dbe:	f884 3044 	strb.w	r3, [r4, #68]	; 0x44
 80e2dc2:	f884 3045 	strb.w	r3, [r4, #69]	; 0x45
 80e2dc6:	f884 3046 	strb.w	r3, [r4, #70]	; 0x46
 80e2dca:	f884 3047 	strb.w	r3, [r4, #71]	; 0x47
 80e2dce:	f884 303d 	strb.w	r3, [r4, #61]	; 0x3d
 80e2dd2:	bd10      	pop	{r4, pc}
 80e2dd4:	2001      	movs	r0, #1
 80e2dd6:	e7fc      	b.n	80e2dd2 <HAL_TIM_Base_Init+0x5a>

080e2dd8 <TIM_ETR_SetConfig>:
 80e2dd8:	4311      	orrs	r1, r2
 80e2dda:	b510      	push	{r4, lr}
 80e2ddc:	6884      	ldr	r4, [r0, #8]
 80e2dde:	ea41 2303 	orr.w	r3, r1, r3, lsl #8
 80e2de2:	f424 447f 	bic.w	r4, r4, #65280	; 0xff00
 80e2de6:	4323      	orrs	r3, r4
 80e2de8:	6083      	str	r3, [r0, #8]
 80e2dea:	bd10      	pop	{r4, pc}

080e2dec <HAL_TIM_ConfigClockSource>:
 80e2dec:	b570      	push	{r4, r5, r6, lr}
 80e2dee:	f890 303c 	ldrb.w	r3, [r0, #60]	; 0x3c
 80e2df2:	4604      	mov	r4, r0
 80e2df4:	2b01      	cmp	r3, #1
 80e2df6:	f04f 0302 	mov.w	r3, #2
 80e2dfa:	f000 80ae 	beq.w	80e2f5a <HAL_TIM_ConfigClockSource+0x16e>
 80e2dfe:	2201      	movs	r2, #1
 80e2e00:	f880 303d 	strb.w	r3, [r0, #61]	; 0x3d
 80e2e04:	4b56      	ldr	r3, [pc, #344]	; (80e2f60 <HAL_TIM_ConfigClockSource+0x174>)
 80e2e06:	f880 203c 	strb.w	r2, [r0, #60]	; 0x3c
 80e2e0a:	6800      	ldr	r0, [r0, #0]
 80e2e0c:	6885      	ldr	r5, [r0, #8]
 80e2e0e:	402b      	ands	r3, r5
 80e2e10:	6083      	str	r3, [r0, #8]
 80e2e12:	680b      	ldr	r3, [r1, #0]
 80e2e14:	2b70      	cmp	r3, #112	; 0x70
 80e2e16:	d057      	beq.n	80e2ec8 <HAL_TIM_ConfigClockSource+0xdc>
 80e2e18:	d83d      	bhi.n	80e2e96 <HAL_TIM_ConfigClockSource+0xaa>
 80e2e1a:	2b50      	cmp	r3, #80	; 0x50
 80e2e1c:	d06a      	beq.n	80e2ef4 <HAL_TIM_ConfigClockSource+0x108>
 80e2e1e:	d81e      	bhi.n	80e2e5e <HAL_TIM_ConfigClockSource+0x72>
 80e2e20:	2b40      	cmp	r3, #64	; 0x40
 80e2e22:	f000 8081 	beq.w	80e2f28 <HAL_TIM_ConfigClockSource+0x13c>
 80e2e26:	d806      	bhi.n	80e2e36 <HAL_TIM_ConfigClockSource+0x4a>
 80e2e28:	2b20      	cmp	r3, #32
 80e2e2a:	d00e      	beq.n	80e2e4a <HAL_TIM_ConfigClockSource+0x5e>
 80e2e2c:	d80b      	bhi.n	80e2e46 <HAL_TIM_ConfigClockSource+0x5a>
 80e2e2e:	f033 0210 	bics.w	r2, r3, #16
 80e2e32:	d00a      	beq.n	80e2e4a <HAL_TIM_ConfigClockSource+0x5e>
 80e2e34:	2201      	movs	r2, #1
 80e2e36:	2301      	movs	r3, #1
 80e2e38:	f884 303d 	strb.w	r3, [r4, #61]	; 0x3d
 80e2e3c:	2300      	movs	r3, #0
 80e2e3e:	f884 303c 	strb.w	r3, [r4, #60]	; 0x3c
 80e2e42:	4610      	mov	r0, r2
 80e2e44:	bd70      	pop	{r4, r5, r6, pc}
 80e2e46:	2b30      	cmp	r3, #48	; 0x30
 80e2e48:	d1f4      	bne.n	80e2e34 <HAL_TIM_ConfigClockSource+0x48>
 80e2e4a:	6882      	ldr	r2, [r0, #8]
 80e2e4c:	f422 1240 	bic.w	r2, r2, #3145728	; 0x300000
 80e2e50:	f022 0270 	bic.w	r2, r2, #112	; 0x70
 80e2e54:	431a      	orrs	r2, r3
 80e2e56:	f042 0207 	orr.w	r2, r2, #7
 80e2e5a:	6082      	str	r2, [r0, #8]
 80e2e5c:	e03e      	b.n	80e2edc <HAL_TIM_ConfigClockSource+0xf0>
 80e2e5e:	2b60      	cmp	r3, #96	; 0x60
 80e2e60:	d1e9      	bne.n	80e2e36 <HAL_TIM_ConfigClockSource+0x4a>
 80e2e62:	684d      	ldr	r5, [r1, #4]
 80e2e64:	68ce      	ldr	r6, [r1, #12]
 80e2e66:	6a01      	ldr	r1, [r0, #32]
 80e2e68:	f021 0110 	bic.w	r1, r1, #16
 80e2e6c:	6201      	str	r1, [r0, #32]
 80e2e6e:	6982      	ldr	r2, [r0, #24]
 80e2e70:	6a03      	ldr	r3, [r0, #32]
 80e2e72:	f422 4270 	bic.w	r2, r2, #61440	; 0xf000
 80e2e76:	f023 03a0 	bic.w	r3, r3, #160	; 0xa0
 80e2e7a:	ea42 3206 	orr.w	r2, r2, r6, lsl #12
 80e2e7e:	ea43 1305 	orr.w	r3, r3, r5, lsl #4
 80e2e82:	6182      	str	r2, [r0, #24]
 80e2e84:	6203      	str	r3, [r0, #32]
 80e2e86:	6883      	ldr	r3, [r0, #8]
 80e2e88:	f423 1340 	bic.w	r3, r3, #3145728	; 0x300000
 80e2e8c:	f023 0370 	bic.w	r3, r3, #112	; 0x70
 80e2e90:	f043 0367 	orr.w	r3, r3, #103	; 0x67
 80e2e94:	e046      	b.n	80e2f24 <HAL_TIM_ConfigClockSource+0x138>
 80e2e96:	f5b3 5f00 	cmp.w	r3, #8192	; 0x2000
 80e2e9a:	d021      	beq.n	80e2ee0 <HAL_TIM_ConfigClockSource+0xf4>
 80e2e9c:	d804      	bhi.n	80e2ea8 <HAL_TIM_ConfigClockSource+0xbc>
 80e2e9e:	f5b3 5280 	subs.w	r2, r3, #4096	; 0x1000
 80e2ea2:	bf18      	it	ne
 80e2ea4:	2201      	movne	r2, #1
 80e2ea6:	e7c6      	b.n	80e2e36 <HAL_TIM_ConfigClockSource+0x4a>
 80e2ea8:	492e      	ldr	r1, [pc, #184]	; (80e2f64 <HAL_TIM_ConfigClockSource+0x178>)
 80e2eaa:	428b      	cmp	r3, r1
 80e2eac:	d0cd      	beq.n	80e2e4a <HAL_TIM_ConfigClockSource+0x5e>
 80e2eae:	d805      	bhi.n	80e2ebc <HAL_TIM_ConfigClockSource+0xd0>
 80e2eb0:	f023 0110 	bic.w	r1, r3, #16
 80e2eb4:	f5b1 1f80 	cmp.w	r1, #1048576	; 0x100000
 80e2eb8:	d0c7      	beq.n	80e2e4a <HAL_TIM_ConfigClockSource+0x5e>
 80e2eba:	e7bc      	b.n	80e2e36 <HAL_TIM_ConfigClockSource+0x4a>
 80e2ebc:	492a      	ldr	r1, [pc, #168]	; (80e2f68 <HAL_TIM_ConfigClockSource+0x17c>)
 80e2ebe:	428b      	cmp	r3, r1
 80e2ec0:	d0c3      	beq.n	80e2e4a <HAL_TIM_ConfigClockSource+0x5e>
 80e2ec2:	3110      	adds	r1, #16
 80e2ec4:	428b      	cmp	r3, r1
 80e2ec6:	e7f7      	b.n	80e2eb8 <HAL_TIM_ConfigClockSource+0xcc>
 80e2ec8:	68cb      	ldr	r3, [r1, #12]
 80e2eca:	e9d1 2101 	ldrd	r2, r1, [r1, #4]
 80e2ece:	f7ff ff83 	bl	80e2dd8 <TIM_ETR_SetConfig>
 80e2ed2:	6822      	ldr	r2, [r4, #0]
 80e2ed4:	6893      	ldr	r3, [r2, #8]
 80e2ed6:	f043 0377 	orr.w	r3, r3, #119	; 0x77
 80e2eda:	6093      	str	r3, [r2, #8]
 80e2edc:	2200      	movs	r2, #0
 80e2ede:	e7aa      	b.n	80e2e36 <HAL_TIM_ConfigClockSource+0x4a>
 80e2ee0:	68cb      	ldr	r3, [r1, #12]
 80e2ee2:	e9d1 2101 	ldrd	r2, r1, [r1, #4]
 80e2ee6:	f7ff ff77 	bl	80e2dd8 <TIM_ETR_SetConfig>
 80e2eea:	6822      	ldr	r2, [r4, #0]
 80e2eec:	6893      	ldr	r3, [r2, #8]
 80e2eee:	f443 4380 	orr.w	r3, r3, #16384	; 0x4000
 80e2ef2:	e7f2      	b.n	80e2eda <HAL_TIM_ConfigClockSource+0xee>
 80e2ef4:	684a      	ldr	r2, [r1, #4]
 80e2ef6:	68ce      	ldr	r6, [r1, #12]
 80e2ef8:	6a01      	ldr	r1, [r0, #32]
 80e2efa:	6a05      	ldr	r5, [r0, #32]
 80e2efc:	f021 010a 	bic.w	r1, r1, #10
 80e2f00:	f025 0501 	bic.w	r5, r5, #1
 80e2f04:	430a      	orrs	r2, r1
 80e2f06:	6205      	str	r5, [r0, #32]
 80e2f08:	6983      	ldr	r3, [r0, #24]
 80e2f0a:	f023 03f0 	bic.w	r3, r3, #240	; 0xf0
 80e2f0e:	ea43 1306 	orr.w	r3, r3, r6, lsl #4
 80e2f12:	6183      	str	r3, [r0, #24]
 80e2f14:	6202      	str	r2, [r0, #32]
 80e2f16:	6883      	ldr	r3, [r0, #8]
 80e2f18:	f423 1340 	bic.w	r3, r3, #3145728	; 0x300000
 80e2f1c:	f023 0370 	bic.w	r3, r3, #112	; 0x70
 80e2f20:	f043 0357 	orr.w	r3, r3, #87	; 0x57
 80e2f24:	6083      	str	r3, [r0, #8]
 80e2f26:	e7d9      	b.n	80e2edc <HAL_TIM_ConfigClockSource+0xf0>
 80e2f28:	684a      	ldr	r2, [r1, #4]
 80e2f2a:	68ce      	ldr	r6, [r1, #12]
 80e2f2c:	6a01      	ldr	r1, [r0, #32]
 80e2f2e:	6a05      	ldr	r5, [r0, #32]
 80e2f30:	f021 010a 	bic.w	r1, r1, #10
 80e2f34:	f025 0501 	bic.w	r5, r5, #1
 80e2f38:	430a      	orrs	r2, r1
 80e2f3a:	6205      	str	r5, [r0, #32]
 80e2f3c:	6983      	ldr	r3, [r0, #24]
 80e2f3e:	f023 03f0 	bic.w	r3, r3, #240	; 0xf0
 80e2f42:	ea43 1306 	orr.w	r3, r3, r6, lsl #4
 80e2f46:	6183      	str	r3, [r0, #24]
 80e2f48:	6202      	str	r2, [r0, #32]
 80e2f4a:	6883      	ldr	r3, [r0, #8]
 80e2f4c:	f423 1340 	bic.w	r3, r3, #3145728	; 0x300000
 80e2f50:	f023 0370 	bic.w	r3, r3, #112	; 0x70
 80e2f54:	f043 0347 	orr.w	r3, r3, #71	; 0x47
 80e2f58:	e7e4      	b.n	80e2f24 <HAL_TIM_ConfigClockSource+0x138>
 80e2f5a:	461a      	mov	r2, r3
 80e2f5c:	e771      	b.n	80e2e42 <HAL_TIM_ConfigClockSource+0x56>
 80e2f5e:	bf00      	nop
 80e2f60:	ffce0088 	.word	0xffce0088
 80e2f64:	00100020 	.word	0x00100020
 80e2f68:	00100030 	.word	0x00100030

080e2f6c <HAL_TIMEx_MasterConfigSynchronization>:
 80e2f6c:	b530      	push	{r4, r5, lr}
 80e2f6e:	f890 303c 	ldrb.w	r3, [r0, #60]	; 0x3c
 80e2f72:	2b01      	cmp	r3, #1
 80e2f74:	f04f 0302 	mov.w	r3, #2
 80e2f78:	d045      	beq.n	80e3006 <HAL_TIMEx_MasterConfigSynchronization+0x9a>
 80e2f7a:	f880 303d 	strb.w	r3, [r0, #61]	; 0x3d
 80e2f7e:	4d23      	ldr	r5, [pc, #140]	; (80e300c <HAL_TIMEx_MasterConfigSynchronization+0xa0>)
 80e2f80:	6803      	ldr	r3, [r0, #0]
 80e2f82:	42ab      	cmp	r3, r5
 80e2f84:	685a      	ldr	r2, [r3, #4]
 80e2f86:	689c      	ldr	r4, [r3, #8]
 80e2f88:	d003      	beq.n	80e2f92 <HAL_TIMEx_MasterConfigSynchronization+0x26>
 80e2f8a:	f505 6580 	add.w	r5, r5, #1024	; 0x400
 80e2f8e:	42ab      	cmp	r3, r5
 80e2f90:	d103      	bne.n	80e2f9a <HAL_TIMEx_MasterConfigSynchronization+0x2e>
 80e2f92:	f422 0270 	bic.w	r2, r2, #15728640	; 0xf00000
 80e2f96:	684d      	ldr	r5, [r1, #4]
 80e2f98:	432a      	orrs	r2, r5
 80e2f9a:	680d      	ldr	r5, [r1, #0]
 80e2f9c:	f022 0270 	bic.w	r2, r2, #112	; 0x70
 80e2fa0:	432a      	orrs	r2, r5
 80e2fa2:	605a      	str	r2, [r3, #4]
 80e2fa4:	4a19      	ldr	r2, [pc, #100]	; (80e300c <HAL_TIMEx_MasterConfigSynchronization+0xa0>)
 80e2fa6:	4293      	cmp	r3, r2
 80e2fa8:	d022      	beq.n	80e2ff0 <HAL_TIMEx_MasterConfigSynchronization+0x84>
 80e2faa:	f1b3 4f80 	cmp.w	r3, #1073741824	; 0x40000000
 80e2fae:	d01f      	beq.n	80e2ff0 <HAL_TIMEx_MasterConfigSynchronization+0x84>
 80e2fb0:	f5a2 427c 	sub.w	r2, r2, #64512	; 0xfc00
 80e2fb4:	4293      	cmp	r3, r2
 80e2fb6:	d01b      	beq.n	80e2ff0 <HAL_TIMEx_MasterConfigSynchronization+0x84>
 80e2fb8:	f502 6280 	add.w	r2, r2, #1024	; 0x400
 80e2fbc:	4293      	cmp	r3, r2
 80e2fbe:	d017      	beq.n	80e2ff0 <HAL_TIMEx_MasterConfigSynchronization+0x84>
 80e2fc0:	f502 6280 	add.w	r2, r2, #1024	; 0x400
 80e2fc4:	4293      	cmp	r3, r2
 80e2fc6:	d013      	beq.n	80e2ff0 <HAL_TIMEx_MasterConfigSynchronization+0x84>
 80e2fc8:	f502 4278 	add.w	r2, r2, #63488	; 0xf800
 80e2fcc:	4293      	cmp	r3, r2
 80e2fce:	d00f      	beq.n	80e2ff0 <HAL_TIMEx_MasterConfigSynchronization+0x84>
 80e2fd0:	f5a2 426c 	sub.w	r2, r2, #60416	; 0xec00
 80e2fd4:	4293      	cmp	r3, r2
 80e2fd6:	d00b      	beq.n	80e2ff0 <HAL_TIMEx_MasterConfigSynchronization+0x84>
 80e2fd8:	f502 3294 	add.w	r2, r2, #75776	; 0x12800
 80e2fdc:	4293      	cmp	r3, r2
 80e2fde:	d007      	beq.n	80e2ff0 <HAL_TIMEx_MasterConfigSynchronization+0x84>
 80e2fe0:	f5a2 42c0 	sub.w	r2, r2, #24576	; 0x6000
 80e2fe4:	4293      	cmp	r3, r2
 80e2fe6:	d003      	beq.n	80e2ff0 <HAL_TIMEx_MasterConfigSynchronization+0x84>
 80e2fe8:	f502 6280 	add.w	r2, r2, #1024	; 0x400
 80e2fec:	4293      	cmp	r3, r2
 80e2fee:	d104      	bne.n	80e2ffa <HAL_TIMEx_MasterConfigSynchronization+0x8e>
 80e2ff0:	6889      	ldr	r1, [r1, #8]
 80e2ff2:	f024 0280 	bic.w	r2, r4, #128	; 0x80
 80e2ff6:	430a      	orrs	r2, r1
 80e2ff8:	609a      	str	r2, [r3, #8]
 80e2ffa:	2301      	movs	r3, #1
 80e2ffc:	f880 303d 	strb.w	r3, [r0, #61]	; 0x3d
 80e3000:	2300      	movs	r3, #0
 80e3002:	f880 303c 	strb.w	r3, [r0, #60]	; 0x3c
 80e3006:	4618      	mov	r0, r3
 80e3008:	bd30      	pop	{r4, r5, pc}
 80e300a:	bf00      	nop
 80e300c:	40010000 	.word	0x40010000

080e3010 <__libc_init_array>:
 80e3010:	b570      	push	{r4, r5, r6, lr}
 80e3012:	4d0d      	ldr	r5, [pc, #52]	; (80e3048 <__libc_init_array+0x38>)
 80e3014:	4c0d      	ldr	r4, [pc, #52]	; (80e304c <__libc_init_array+0x3c>)
 80e3016:	1b64      	subs	r4, r4, r5
 80e3018:	10a4      	asrs	r4, r4, #2
 80e301a:	2600      	movs	r6, #0
 80e301c:	42a6      	cmp	r6, r4
 80e301e:	d109      	bne.n	80e3034 <__libc_init_array+0x24>
 80e3020:	4d0b      	ldr	r5, [pc, #44]	; (80e3050 <__libc_init_array+0x40>)
 80e3022:	4c0c      	ldr	r4, [pc, #48]	; (80e3054 <__libc_init_array+0x44>)
 80e3024:	f000 f82e 	bl	80e3084 <_init>
 80e3028:	1b64      	subs	r4, r4, r5
 80e302a:	10a4      	asrs	r4, r4, #2
 80e302c:	2600      	movs	r6, #0
 80e302e:	42a6      	cmp	r6, r4
 80e3030:	d105      	bne.n	80e303e <__libc_init_array+0x2e>
 80e3032:	bd70      	pop	{r4, r5, r6, pc}
 80e3034:	f855 3b04 	ldr.w	r3, [r5], #4
 80e3038:	4798      	blx	r3
 80e303a:	3601      	adds	r6, #1
 80e303c:	e7ee      	b.n	80e301c <__libc_init_array+0xc>
 80e303e:	f855 3b04 	ldr.w	r3, [r5], #4
 80e3042:	4798      	blx	r3
 80e3044:	3601      	adds	r6, #1
 80e3046:	e7f2      	b.n	80e302e <__libc_init_array+0x1e>
 80e3048:	080e3108 	.word	0x080e3108
 80e304c:	080e3108 	.word	0x080e3108
 80e3050:	080e3108 	.word	0x080e3108
 80e3054:	080e310c 	.word	0x080e310c

080e3058 <memcpy>:
 80e3058:	440a      	add	r2, r1
 80e305a:	4291      	cmp	r1, r2
 80e305c:	f100 33ff 	add.w	r3, r0, #4294967295
 80e3060:	d100      	bne.n	80e3064 <memcpy+0xc>
 80e3062:	4770      	bx	lr
 80e3064:	b510      	push	{r4, lr}
 80e3066:	f811 4b01 	ldrb.w	r4, [r1], #1
 80e306a:	f803 4f01 	strb.w	r4, [r3, #1]!
 80e306e:	4291      	cmp	r1, r2
 80e3070:	d1f9      	bne.n	80e3066 <memcpy+0xe>
 80e3072:	bd10      	pop	{r4, pc}

080e3074 <memset>:
 80e3074:	4402      	add	r2, r0
 80e3076:	4603      	mov	r3, r0
 80e3078:	4293      	cmp	r3, r2
 80e307a:	d100      	bne.n	80e307e <memset+0xa>
 80e307c:	4770      	bx	lr
 80e307e:	f803 1b01 	strb.w	r1, [r3], #1
 80e3082:	e7f9      	b.n	80e3078 <memset+0x4>

080e3084 <_init>:
 80e3084:	b5f8      	push	{r3, r4, r5, r6, r7, lr}
 80e3086:	bf00      	nop
 80e3088:	bcf8      	pop	{r3, r4, r5, r6, r7}
 80e308a:	bc08      	pop	{r3}
 80e308c:	469e      	mov	lr, r3
 80e308e:	4770      	bx	lr

080e3090 <_fini>:
 80e3090:	b5f8      	push	{r3, r4, r5, r6, r7, lr}
 80e3092:	bf00      	nop
 80e3094:	bcf8      	pop	{r3, r4, r5, r6, r7}
 80e3096:	bc08      	pop	{r3}
 80e3098:	469e      	mov	lr, r3
 80e309a:	4770      	bx	lr
